	.cpu cortex-m4
	.arch armv7e-m
	.fpu fpv4-sp-d16
	.eabi_attribute 27, 1
	.eabi_attribute 28, 1
	.eabi_attribute 20, 1
	.eabi_attribute 21, 1
	.eabi_attribute 23, 3
	.eabi_attribute 24, 1
	.eabi_attribute 25, 1
	.eabi_attribute 26, 1
	.eabi_attribute 30, 1
	.eabi_attribute 34, 1
	.eabi_attribute 18, 4
	.file	"m2a.c"
	.text
.Ltext0:
	.cfi_sections	.debug_frame
	.section	.rodata.fn_advancePointer.str1.4,"aMS",%progbits,1
	.align	2
.LC0:
	.ascii	"pst_me\000"
	.align	2
.LC1:
	.ascii	"Source/circularBuffer.h\000"
	.section	.text.fn_advancePointer,"ax",%progbits
	.align	1
	.syntax unified
	.thumb
	.thumb_func
	.type	fn_advancePointer, %function
fn_advancePointer:
.LVL0:
.LFB11:
	.file 1 "Source/circularBuffer.h"
	.loc 1 79 55 view -0
	.cfi_startproc
	@ args = 0, pretend = 0, frame = 0
	@ frame_needed = 0, uses_anonymous_args = 0
	.loc 1 79 55 is_stmt 0 view .LVU1
	push	{r3, lr}
.LCFI0:
	.cfi_def_cfa_offset 8
	.cfi_offset 3, -8
	.cfi_offset 14, -4
	.loc 1 80 8 is_stmt 1 view .LVU2
	.loc 1 80 20 is_stmt 0 view .LVU3
	cbz	r0, .L6
	mov	r3, r0
	.loc 1 82 2 is_stmt 1 view .LVU4
	.loc 1 82 11 is_stmt 0 view .LVU5
	ldrb	r2, [r0, #16]	@ zero_extendqisi2
	.loc 1 82 4 view .LVU6
	cbz	r2, .L3
	.loc 1 83 13 is_stmt 1 view .LVU7
	.loc 1 83 25 is_stmt 0 view .LVU8
	ldr	r2, [r0, #8]
	.loc 1 83 16 view .LVU9
	adds	r2, r2, #1
	.loc 1 83 15 view .LVU10
	str	r2, [r0, #8]
	.loc 1 83 44 view .LVU11
	ldr	r1, [r0, #12]
	.loc 1 83 15 view .LVU12
	cmp	r2, r1
	beq	.L7
.L3:
	.loc 1 87 2 is_stmt 1 view .LVU13
	.loc 1 87 14 is_stmt 0 view .LVU14
	ldr	r2, [r3, #4]
	.loc 1 87 5 view .LVU15
	adds	r2, r2, #1
	.loc 1 87 4 view .LVU16
	str	r2, [r3, #4]
	.loc 1 87 33 view .LVU17
	ldr	r1, [r3, #12]
	.loc 1 87 4 view .LVU18
	cmp	r2, r1
	beq	.L8
.L4:
	.loc 1 90 2 is_stmt 1 view .LVU19
	.loc 1 90 26 is_stmt 0 view .LVU20
	ldr	r2, [r3, #4]
	.loc 1 90 44 view .LVU21
	ldr	r1, [r3, #8]
	.loc 1 90 35 view .LVU22
	cmp	r2, r1
	ite	ne
	movne	r2, #0
	moveq	r2, #1
	.loc 1 90 17 view .LVU23
	strb	r2, [r3, #16]
	.loc 1 91 5 view .LVU24
	pop	{r3, pc}
.L6:
	.loc 1 80 22 discriminator 1 view .LVU25
	ldr	r3, .L9
	ldr	r2, .L9+4
	movs	r1, #80
	ldr	r0, .L9+8
.LVL1:
	.loc 1 80 22 discriminator 1 view .LVU26
	bl	__assert_func
.LVL2:
.L7:
	.loc 1 84 10 is_stmt 1 view .LVU27
	.loc 1 84 25 is_stmt 0 view .LVU28
	movs	r2, #0
	str	r2, [r0, #8]
	b	.L3
.L8:
	.loc 1 88 6 is_stmt 1 view .LVU29
	.loc 1 88 21 is_stmt 0 view .LVU30
	movs	r2, #0
	str	r2, [r3, #4]
	b	.L4
.L10:
	.align	2
.L9:
	.word	.LC0
	.word	.LANCHOR0
	.word	.LC1
	.cfi_endproc
.LFE11:
	.size	fn_advancePointer, .-fn_advancePointer
	.section	.text.fn_retreatPointer,"ax",%progbits
	.align	1
	.syntax unified
	.thumb
	.thumb_func
	.type	fn_retreatPointer, %function
fn_retreatPointer:
.LVL3:
.LFB12:
	.loc 1 94 55 is_stmt 1 view -0
	.cfi_startproc
	@ args = 0, pretend = 0, frame = 0
	@ frame_needed = 0, uses_anonymous_args = 0
	.loc 1 94 55 is_stmt 0 view .LVU32
	push	{r3, lr}
.LCFI1:
	.cfi_def_cfa_offset 8
	.cfi_offset 3, -8
	.cfi_offset 14, -4
	.loc 1 95 8 is_stmt 1 view .LVU33
	.loc 1 95 20 is_stmt 0 view .LVU34
	cbz	r0, .L15
	.loc 1 97 2 is_stmt 1 view .LVU35
	.loc 1 97 17 is_stmt 0 view .LVU36
	movs	r2, #0
	strb	r2, [r0, #16]
	.loc 1 99 2 is_stmt 1 view .LVU37
	.loc 1 99 14 is_stmt 0 view .LVU38
	ldr	r2, [r0, #8]
	.loc 1 99 5 view .LVU39
	adds	r2, r2, #1
	.loc 1 99 4 view .LVU40
	str	r2, [r0, #8]
	.loc 1 99 33 view .LVU41
	ldr	r1, [r0, #12]
	.loc 1 99 4 view .LVU42
	cmp	r2, r1
	beq	.L16
.L11:
	.loc 1 102 5 view .LVU43
	pop	{r3, pc}
.L15:
	.loc 1 95 22 discriminator 1 view .LVU44
	ldr	r3, .L17
	ldr	r2, .L17+4
	movs	r1, #95
	ldr	r0, .L17+8
.LVL4:
	.loc 1 95 22 discriminator 1 view .LVU45
	bl	__assert_func
.LVL5:
.L16:
	.loc 1 100 3 is_stmt 1 view .LVU46
	.loc 1 100 18 is_stmt 0 view .LVU47
	movs	r2, #0
	str	r2, [r0, #8]
	.loc 1 102 5 view .LVU48
	b	.L11
.L18:
	.align	2
.L17:
	.word	.LC0
	.word	.LANCHOR1
	.word	.LC1
	.cfi_endproc
.LFE12:
	.size	fn_retreatPointer, .-fn_retreatPointer
	.section	.text.clock_setup,"ax",%progbits
	.align	1
	.global	clock_setup
	.syntax unified
	.thumb
	.thumb_func
	.type	clock_setup, %function
clock_setup:
.LFB0:
	.file 2 "Source/embsysS20.h"
	.loc 2 32 27 is_stmt 1 view -0
	.cfi_startproc
	@ args = 0, pretend = 0, frame = 0
	@ frame_needed = 0, uses_anonymous_args = 0
	push	{r4, lr}
.LCFI2:
	.cfi_def_cfa_offset 8
	.cfi_offset 4, -8
	.cfi_offset 14, -4
	sub	sp, sp, #8
.LCFI3:
	.cfi_def_cfa_offset 16
	.loc 2 33 9 view .LVU50
	movs	r0, #2
	bl	rcc_osc_on
.LVL6:
	.loc 2 36 9 view .LVU51
	movs	r4, #0
	str	r4, [sp, #4]
	str	r4, [sp]
	mov	r3, r4
	movs	r2, #20
	movs	r1, #4
	movs	r0, #2
	bl	rcc_set_main_pll
.LVL7:
	.loc 2 38 9 view .LVU52
	mov	r0, r4
	bl	rcc_osc_on
.LVL8:
	.loc 2 40 9 view .LVU53
	movw	r0, #2817
	bl	rcc_periph_clock_enable
.LVL9:
	.loc 2 41 9 view .LVU54
	mov	r0, #2432
	bl	rcc_periph_clock_enable
.LVL10:
	.loc 2 42 6 view .LVU55
	movw	r0, #2434
	bl	rcc_periph_clock_enable
.LVL11:
	.loc 2 43 6 view .LVU56
	movw	r0, #2833
	bl	rcc_periph_clock_enable
.LVL12:
	.loc 2 44 6 view .LVU57
	.loc 2 45 5 is_stmt 0 view .LVU58
	add	sp, sp, #8
.LCFI4:
	.cfi_def_cfa_offset 8
	@ sp needed
	pop	{r4, pc}
	.cfi_endproc
.LFE0:
	.size	clock_setup, .-clock_setup
	.section	.text.usart_setup,"ax",%progbits
	.align	1
	.global	usart_setup
	.syntax unified
	.thumb
	.thumb_func
	.type	usart_setup, %function
usart_setup:
.LFB1:
	.loc 2 47 27 is_stmt 1 view -0
	.cfi_startproc
	@ args = 0, pretend = 0, frame = 0
	@ frame_needed = 0, uses_anonymous_args = 0
	push	{r4, lr}
.LCFI5:
	.cfi_def_cfa_offset 8
	.cfi_offset 4, -8
	.cfi_offset 14, -4
	.loc 2 49 10 view .LVU60
	movs	r3, #12
	movs	r2, #0
	movs	r1, #2
	mov	r0, #1207959552
	bl	gpio_mode_setup
.LVL13:
	.loc 2 52 10 view .LVU61
	movs	r2, #12
	movs	r1, #7
	mov	r0, #1207959552
	bl	gpio_set_af
.LVL14:
	.loc 2 55 10 view .LVU62
	ldr	r4, .L23
	mov	r1, #57600
	mov	r0, r4
	bl	usart_set_baudrate
.LVL15:
	.loc 2 56 10 view .LVU63
	movs	r1, #9
	mov	r0, r4
	bl	usart_set_databits
.LVL16:
	.loc 2 57 10 view .LVU64
	movs	r1, #0
	mov	r0, r4
	bl	usart_set_stopbits
.LVL17:
	.loc 2 58 10 view .LVU65
	movs	r1, #12
	mov	r0, r4
	bl	usart_set_mode
.LVL18:
	.loc 2 59 10 view .LVU66
	mov	r1, #1536
	mov	r0, r4
	bl	usart_set_parity
.LVL19:
	.loc 2 60 10 view .LVU67
	movs	r1, #0
	mov	r0, r4
	bl	usart_set_flow_control
.LVL20:
	.loc 2 63 10 view .LVU68
	mov	r0, r4
	bl	usart_enable
.LVL21:
	.loc 2 64 5 is_stmt 0 view .LVU69
	pop	{r4, pc}
.L24:
	.align	2
.L23:
	.word	1073759232
	.cfi_endproc
.LFE1:
	.size	usart_setup, .-usart_setup
	.section	.text.fn_circBuffReset,"ax",%progbits
	.align	1
	.global	fn_circBuffReset
	.syntax unified
	.thumb
	.thumb_func
	.type	fn_circBuffReset, %function
fn_circBuffReset:
.LVL22:
.LFB5:
	.loc 1 22 47 is_stmt 1 view -0
	.cfi_startproc
	@ args = 0, pretend = 0, frame = 0
	@ frame_needed = 0, uses_anonymous_args = 0
	.loc 1 22 47 is_stmt 0 view .LVU71
	push	{r3, lr}
.LCFI6:
	.cfi_def_cfa_offset 8
	.cfi_offset 3, -8
	.cfi_offset 14, -4
	.loc 1 23 8 is_stmt 1 view .LVU72
	.loc 1 23 20 is_stmt 0 view .LVU73
	cbz	r0, .L28
	.loc 1 25 6 is_stmt 1 view .LVU74
	.loc 1 25 21 is_stmt 0 view .LVU75
	movs	r2, #0
	str	r2, [r0, #4]
	.loc 1 26 6 is_stmt 1 view .LVU76
	.loc 1 26 21 is_stmt 0 view .LVU77
	str	r2, [r0, #8]
	.loc 1 27 6 is_stmt 1 view .LVU78
	.loc 1 27 21 is_stmt 0 view .LVU79
	strb	r2, [r0, #16]
	.loc 1 28 5 view .LVU80
	pop	{r3, pc}
.L28:
	.loc 1 23 22 discriminator 1 view .LVU81
	ldr	r3, .L29
	ldr	r2, .L29+4
	movs	r1, #23
	ldr	r0, .L29+8
.LVL23:
	.loc 1 23 22 discriminator 1 view .LVU82
	bl	__assert_func
.LVL24:
.L30:
	.align	2
.L29:
	.word	.LC0
	.word	.LANCHOR2
	.word	.LC1
	.cfi_endproc
.LFE5:
	.size	fn_circBuffReset, .-fn_circBuffReset
	.section	.text.fn_circBuffEmpty,"ax",%progbits
	.align	1
	.global	fn_circBuffEmpty
	.syntax unified
	.thumb
	.thumb_func
	.type	fn_circBuffEmpty, %function
fn_circBuffEmpty:
.LVL25:
.LFB6:
	.loc 1 31 46 is_stmt 1 view -0
	.cfi_startproc
	@ args = 0, pretend = 0, frame = 0
	@ frame_needed = 0, uses_anonymous_args = 0
	.loc 1 31 46 is_stmt 0 view .LVU84
	push	{r3, lr}
.LCFI7:
	.cfi_def_cfa_offset 8
	.cfi_offset 3, -8
	.cfi_offset 14, -4
	.loc 1 32 8 is_stmt 1 view .LVU85
	.loc 1 32 20 is_stmt 0 view .LVU86
	cbz	r0, .L37
	.loc 1 34 6 is_stmt 1 view .LVU87
	.loc 1 34 21 is_stmt 0 view .LVU88
	ldrb	r2, [r0, #16]	@ zero_extendqisi2
	.loc 1 34 30 view .LVU89
	cbnz	r2, .L34
	.loc 1 34 40 discriminator 1 view .LVU90
	ldr	r2, [r0, #4]
	.loc 1 34 58 discriminator 1 view .LVU91
	ldr	r3, [r0, #8]
	.loc 1 34 30 discriminator 1 view .LVU92
	cmp	r2, r3
	beq	.L35
	.loc 1 34 30 view .LVU93
	movs	r0, #0
.LVL26:
	.loc 1 34 30 view .LVU94
	b	.L33
.LVL27:
.L37:
	.loc 1 32 22 discriminator 1 view .LVU95
	ldr	r3, .L38
	ldr	r2, .L38+4
	movs	r1, #32
	ldr	r0, .L38+8
.LVL28:
	.loc 1 32 22 discriminator 1 view .LVU96
	bl	__assert_func
.LVL29:
.L34:
	.loc 1 34 30 view .LVU97
	movs	r0, #0
.LVL30:
.L33:
	.loc 1 35 5 discriminator 6 view .LVU98
	pop	{r3, pc}
.LVL31:
.L35:
	.loc 1 34 30 view .LVU99
	movs	r0, #1
.LVL32:
	.loc 1 34 30 view .LVU100
	b	.L33
.L39:
	.align	2
.L38:
	.word	.LC0
	.word	.LANCHOR3
	.word	.LC1
	.cfi_endproc
.LFE6:
	.size	fn_circBuffEmpty, .-fn_circBuffEmpty
	.section	.rodata.fn_circBuffInit.str1.4,"aMS",%progbits,1
	.align	2
.LC2:
	.ascii	"pst_me && pc_buff && u_size\000"
	.align	2
.LC3:
	.ascii	"fn_circBuffEmpty(pst_me)\000"
	.section	.text.fn_circBuffInit,"ax",%progbits
	.align	1
	.global	fn_circBuffInit
	.syntax unified
	.thumb
	.thumb_func
	.type	fn_circBuffInit, %function
fn_circBuffInit:
.LVL33:
.LFB7:
	.loc 1 38 76 is_stmt 1 view -0
	.cfi_startproc
	@ args = 0, pretend = 0, frame = 0
	@ frame_needed = 0, uses_anonymous_args = 0
	.loc 1 38 76 is_stmt 0 view .LVU102
	push	{r4, lr}
.LCFI8:
	.cfi_def_cfa_offset 8
	.cfi_offset 4, -8
	.cfi_offset 14, -4
	.loc 1 39 8 is_stmt 1 view .LVU103
	.loc 1 39 20 is_stmt 0 view .LVU104
	cbz	r0, .L41
	mov	r4, r0
	.loc 1 39 15 discriminator 2 view .LVU105
	cbz	r1, .L41
	.loc 1 39 26 discriminator 4 view .LVU106
	cbz	r2, .L41
	.loc 1 41 9 is_stmt 1 view .LVU107
	.loc 1 41 27 is_stmt 0 view .LVU108
	str	r1, [r0]
	.loc 1 42 9 is_stmt 1 view .LVU109
	.loc 1 42 23 is_stmt 0 view .LVU110
	str	r2, [r0, #12]
	.loc 1 43 9 is_stmt 1 view .LVU111
	bl	fn_circBuffReset
.LVL34:
	.loc 1 45 8 view .LVU112
	.loc 1 45 8 is_stmt 0 view .LVU113
	mov	r0, r4
	bl	fn_circBuffEmpty
.LVL35:
	.loc 1 45 20 view .LVU114
	cbz	r0, .L45
	.loc 1 46 5 view .LVU115
	pop	{r4, pc}
.LVL36:
.L41:
	.loc 1 39 22 discriminator 5 view .LVU116
	ldr	r3, .L46
	ldr	r2, .L46+4
.LVL37:
	.loc 1 39 22 discriminator 5 view .LVU117
	movs	r1, #39
.LVL38:
	.loc 1 39 22 discriminator 5 view .LVU118
	ldr	r0, .L46+8
.LVL39:
	.loc 1 39 22 discriminator 5 view .LVU119
	bl	__assert_func
.LVL40:
.L45:
	.loc 1 45 22 discriminator 1 view .LVU120
	ldr	r3, .L46+12
	ldr	r2, .L46+4
	movs	r1, #45
	ldr	r0, .L46+8
	bl	__assert_func
.LVL41:
.L47:
	.align	2
.L46:
	.word	.LC2
	.word	.LANCHOR4
	.word	.LC1
	.word	.LC3
	.cfi_endproc
.LFE7:
	.size	fn_circBuffInit, .-fn_circBuffInit
	.section	.text.fn_circBuffFull,"ax",%progbits
	.align	1
	.global	fn_circBuffFull
	.syntax unified
	.thumb
	.thumb_func
	.type	fn_circBuffFull, %function
fn_circBuffFull:
.LVL42:
.LFB8:
	.loc 1 49 45 is_stmt 1 view -0
	.cfi_startproc
	@ args = 0, pretend = 0, frame = 0
	@ frame_needed = 0, uses_anonymous_args = 0
	.loc 1 49 45 is_stmt 0 view .LVU122
	push	{r3, lr}
.LCFI9:
	.cfi_def_cfa_offset 8
	.cfi_offset 3, -8
	.cfi_offset 14, -4
	.loc 1 50 8 is_stmt 1 view .LVU123
	.loc 1 50 20 is_stmt 0 view .LVU124
	cbz	r0, .L51
	.loc 1 52 2 is_stmt 1 view .LVU125
	.loc 1 53 5 is_stmt 0 view .LVU126
	ldrb	r0, [r0, #16]	@ zero_extendqisi2
.LVL43:
	.loc 1 53 5 view .LVU127
	pop	{r3, pc}
.LVL44:
.L51:
	.loc 1 50 22 discriminator 1 view .LVU128
	ldr	r3, .L52
	ldr	r2, .L52+4
	movs	r1, #50
	ldr	r0, .L52+8
.LVL45:
	.loc 1 50 22 discriminator 1 view .LVU129
	bl	__assert_func
.LVL46:
.L53:
	.align	2
.L52:
	.word	.LC0
	.word	.LANCHOR5
	.word	.LC1
	.cfi_endproc
.LFE8:
	.size	fn_circBuffFull, .-fn_circBuffFull
	.section	.text.fn_circBuffCapacity,"ax",%progbits
	.align	1
	.global	fn_circBuffCapacity
	.syntax unified
	.thumb
	.thumb_func
	.type	fn_circBuffCapacity, %function
fn_circBuffCapacity:
.LVL47:
.LFB9:
	.loc 1 56 52 is_stmt 1 view -0
	.cfi_startproc
	@ args = 0, pretend = 0, frame = 0
	@ frame_needed = 0, uses_anonymous_args = 0
	.loc 1 56 52 is_stmt 0 view .LVU131
	push	{r3, lr}
.LCFI10:
	.cfi_def_cfa_offset 8
	.cfi_offset 3, -8
	.cfi_offset 14, -4
	.loc 1 57 8 is_stmt 1 view .LVU132
	.loc 1 57 20 is_stmt 0 view .LVU133
	cbz	r0, .L57
	.loc 1 59 2 is_stmt 1 view .LVU134
	.loc 1 60 5 is_stmt 0 view .LVU135
	ldr	r0, [r0, #12]
.LVL48:
	.loc 1 60 5 view .LVU136
	pop	{r3, pc}
.LVL49:
.L57:
	.loc 1 57 22 discriminator 1 view .LVU137
	ldr	r3, .L58
	ldr	r2, .L58+4
	movs	r1, #57
	ldr	r0, .L58+8
.LVL50:
	.loc 1 57 22 discriminator 1 view .LVU138
	bl	__assert_func
.LVL51:
.L59:
	.align	2
.L58:
	.word	.LC0
	.word	.LANCHOR6
	.word	.LC1
	.cfi_endproc
.LFE9:
	.size	fn_circBuffCapacity, .-fn_circBuffCapacity
	.section	.text.fn_circBuffSize,"ax",%progbits
	.align	1
	.global	fn_circBuffSize
	.syntax unified
	.thumb
	.thumb_func
	.type	fn_circBuffSize, %function
fn_circBuffSize:
.LVL52:
.LFB10:
	.loc 1 63 48 is_stmt 1 view -0
	.cfi_startproc
	@ args = 0, pretend = 0, frame = 0
	@ frame_needed = 0, uses_anonymous_args = 0
	.loc 1 63 48 is_stmt 0 view .LVU140
	push	{r3, lr}
.LCFI11:
	.cfi_def_cfa_offset 8
	.cfi_offset 3, -8
	.cfi_offset 14, -4
	.loc 1 64 8 is_stmt 1 view .LVU141
	.loc 1 64 20 is_stmt 0 view .LVU142
	cbz	r0, .L65
	mov	r3, r0
	.loc 1 66 2 is_stmt 1 view .LVU143
	.loc 1 66 9 is_stmt 0 view .LVU144
	ldr	r0, [r0, #12]
.LVL53:
	.loc 1 68 2 is_stmt 1 view .LVU145
	.loc 1 68 12 is_stmt 0 view .LVU146
	ldrb	r2, [r3, #16]	@ zero_extendqisi2
	.loc 1 68 4 view .LVU147
	cbnz	r2, .L60
	.loc 1 69 3 is_stmt 1 view .LVU148
	.loc 1 69 12 is_stmt 0 view .LVU149
	ldr	r2, [r3, #4]
	.loc 1 69 30 view .LVU150
	ldr	r3, [r3, #8]
.LVL54:
	.loc 1 69 5 view .LVU151
	cmp	r2, r3
	bcc	.L63
	.loc 1 70 4 is_stmt 1 view .LVU152
	.loc 1 70 11 is_stmt 0 view .LVU153
	subs	r0, r2, r3
.LVL55:
.L60:
	.loc 1 76 5 view .LVU154
	pop	{r3, pc}
.LVL56:
.L65:
	.loc 1 64 22 discriminator 1 view .LVU155
	ldr	r3, .L66
	ldr	r2, .L66+4
	movs	r1, #64
	ldr	r0, .L66+8
.LVL57:
	.loc 1 64 22 discriminator 1 view .LVU156
	bl	__assert_func
.LVL58:
.L63:
	.loc 1 72 4 is_stmt 1 view .LVU157
	.loc 1 72 27 is_stmt 0 view .LVU158
	add	r0, r0, r2
.LVL59:
	.loc 1 72 11 view .LVU159
	subs	r0, r0, r3
.LVL60:
	.loc 1 75 2 is_stmt 1 view .LVU160
	.loc 1 75 9 is_stmt 0 view .LVU161
	b	.L60
.L67:
	.align	2
.L66:
	.word	.LC0
	.word	.LANCHOR7
	.word	.LC1
	.cfi_endproc
.LFE10:
	.size	fn_circBuffSize, .-fn_circBuffSize
	.section	.rodata.fn_circBuffPut.str1.4,"aMS",%progbits,1
	.align	2
.LC4:
	.ascii	"pst_me && pst_me->pc_buffer\000"
	.section	.text.fn_circBuffPut,"ax",%progbits
	.align	1
	.global	fn_circBuffPut
	.syntax unified
	.thumb
	.thumb_func
	.type	fn_circBuffPut, %function
fn_circBuffPut:
.LVL61:
.LFB13:
	.loc 1 105 58 is_stmt 1 view -0
	.cfi_startproc
	@ args = 0, pretend = 0, frame = 0
	@ frame_needed = 0, uses_anonymous_args = 0
	.loc 1 105 58 is_stmt 0 view .LVU163
	push	{r3, lr}
.LCFI12:
	.cfi_def_cfa_offset 8
	.cfi_offset 3, -8
	.cfi_offset 14, -4
	.loc 1 106 8 is_stmt 1 view .LVU164
	.loc 1 106 20 is_stmt 0 view .LVU165
	cbz	r0, .L69
	mov	r3, r0
	.loc 1 106 24 discriminator 2 view .LVU166
	ldr	r2, [r0]
	.loc 1 106 15 discriminator 2 view .LVU167
	cbz	r2, .L69
	.loc 1 108 2 is_stmt 1 view .LVU168
	.loc 1 108 26 is_stmt 0 view .LVU169
	ldr	r0, [r0, #4]
.LVL62:
	.loc 1 108 36 view .LVU170
	strb	r1, [r2, r0]
	.loc 1 110 2 is_stmt 1 view .LVU171
	mov	r0, r3
	bl	fn_advancePointer
.LVL63:
	.loc 1 111 5 is_stmt 0 view .LVU172
	pop	{r3, pc}
.LVL64:
.L69:
	.loc 1 106 22 discriminator 3 view .LVU173
	ldr	r3, .L72
	ldr	r2, .L72+4
	movs	r1, #106
.LVL65:
	.loc 1 106 22 discriminator 3 view .LVU174
	ldr	r0, .L72+8
.LVL66:
	.loc 1 106 22 discriminator 3 view .LVU175
	bl	__assert_func
.LVL67:
.L73:
	.align	2
.L72:
	.word	.LC4
	.word	.LANCHOR8
	.word	.LC1
	.cfi_endproc
.LFE13:
	.size	fn_circBuffPut, .-fn_circBuffPut
	.section	.rodata.fn_circBuffGet.str1.4,"aMS",%progbits,1
	.align	2
.LC5:
	.ascii	"pc_data\000"
	.align	2
.LC6:
	.ascii	"pst_me->pc_buffer\000"
	.section	.text.fn_circBuffGet,"ax",%progbits
	.align	1
	.global	fn_circBuffGet
	.syntax unified
	.thumb
	.thumb_func
	.type	fn_circBuffGet, %function
fn_circBuffGet:
.LVL68:
.LFB14:
	.loc 1 114 59 is_stmt 1 view -0
	.cfi_startproc
	@ args = 0, pretend = 0, frame = 0
	@ frame_needed = 0, uses_anonymous_args = 0
	.loc 1 114 59 is_stmt 0 view .LVU177
	push	{r4, r5, r6, lr}
.LCFI13:
	.cfi_def_cfa_offset 16
	.cfi_offset 4, -16
	.cfi_offset 5, -12
	.cfi_offset 6, -8
	.cfi_offset 14, -4
	.loc 1 116 8 is_stmt 1 view .LVU178
	.loc 1 116 20 is_stmt 0 view .LVU179
	cbz	r0, .L81
	mov	r4, r1
	mov	r5, r0
	.loc 1 117 8 is_stmt 1 view .LVU180
	.loc 1 117 20 is_stmt 0 view .LVU181
	cbz	r1, .L82
	.loc 1 118 8 is_stmt 1 view .LVU182
	.loc 1 118 14 is_stmt 0 view .LVU183
	ldr	r6, [r0]
	.loc 1 118 20 view .LVU184
	cbz	r6, .L83
	.loc 1 120 1 is_stmt 1 view .LVU185
.LVL69:
	.loc 1 122 2 view .LVU186
	.loc 1 122 6 is_stmt 0 view .LVU187
	bl	fn_circBuffEmpty
.LVL70:
	.loc 1 122 4 view .LVU188
	cbz	r0, .L84
	.loc 1 120 6 view .LVU189
	movs	r0, #0
.LVL71:
.L78:
	.loc 1 129 9 is_stmt 1 view .LVU190
	.loc 1 130 5 is_stmt 0 view .LVU191
	pop	{r4, r5, r6, pc}
.LVL72:
.L81:
	.loc 1 116 22 discriminator 1 view .LVU192
	ldr	r3, .L85
	ldr	r2, .L85+4
	movs	r1, #116
.LVL73:
	.loc 1 116 22 discriminator 1 view .LVU193
	ldr	r0, .L85+8
.LVL74:
	.loc 1 116 22 discriminator 1 view .LVU194
	bl	__assert_func
.LVL75:
.L82:
	.loc 1 117 22 discriminator 1 view .LVU195
	ldr	r3, .L85+12
	ldr	r2, .L85+4
	movs	r1, #117
.LVL76:
	.loc 1 117 22 discriminator 1 view .LVU196
	ldr	r0, .L85+8
.LVL77:
	.loc 1 117 22 discriminator 1 view .LVU197
	bl	__assert_func
.LVL78:
.L83:
	.loc 1 118 22 discriminator 1 view .LVU198
	ldr	r3, .L85+16
	ldr	r2, .L85+4
	movs	r1, #118
.LVL79:
	.loc 1 118 22 discriminator 1 view .LVU199
	ldr	r0, .L85+8
.LVL80:
	.loc 1 118 22 discriminator 1 view .LVU200
	bl	__assert_func
.LVL81:
.L84:
	.loc 1 123 9 is_stmt 1 view .LVU201
	.loc 1 123 44 is_stmt 0 view .LVU202
	ldr	r3, [r5, #8]
	.loc 1 123 37 view .LVU203
	ldrb	r3, [r6, r3]	@ zero_extendqisi2
	.loc 1 123 18 view .LVU204
	strb	r3, [r4]
	.loc 1 124 6 is_stmt 1 view .LVU205
	mov	r0, r5
	bl	fn_retreatPointer
.LVL82:
	.loc 1 126 5 view .LVU206
	.loc 1 126 7 is_stmt 0 view .LVU207
	movs	r0, #1
	b	.L78
.L86:
	.align	2
.L85:
	.word	.LC0
	.word	.LANCHOR9
	.word	.LC1
	.word	.LC5
	.word	.LC6
	.cfi_endproc
.LFE14:
	.size	fn_circBuffGet, .-fn_circBuffGet
	.section	.rodata.fn_circBuffGetMostRecent.str1.4,"aMS",%progbits,1
	.align	2
.LC7:
	.ascii	"pst_me && pc_data && pst_me->pc_buffer\000"
	.section	.text.fn_circBuffGetMostRecent,"ax",%progbits
	.align	1
	.global	fn_circBuffGetMostRecent
	.syntax unified
	.thumb
	.thumb_func
	.type	fn_circBuffGetMostRecent, %function
fn_circBuffGetMostRecent:
.LVL83:
.LFB15:
	.loc 1 132 69 is_stmt 1 view -0
	.cfi_startproc
	@ args = 0, pretend = 0, frame = 0
	@ frame_needed = 0, uses_anonymous_args = 0
	.loc 1 132 69 is_stmt 0 view .LVU209
	push	{r4, r5, r6, lr}
.LCFI14:
	.cfi_def_cfa_offset 16
	.cfi_offset 4, -16
	.cfi_offset 5, -12
	.cfi_offset 6, -8
	.cfi_offset 14, -4
	.loc 1 133 8 is_stmt 1 view .LVU210
	.loc 1 133 20 is_stmt 0 view .LVU211
	cbz	r0, .L88
	mov	r4, r1
	mov	r6, r0
	.loc 1 133 15 discriminator 2 view .LVU212
	cbz	r1, .L88
	.loc 1 133 35 discriminator 4 view .LVU213
	ldr	r5, [r0]
	.loc 1 133 26 discriminator 4 view .LVU214
	cbz	r5, .L88
	.loc 1 135 8 is_stmt 1 view .LVU215
.LVL84:
	.loc 1 137 9 view .LVU216
	.loc 1 137 13 is_stmt 0 view .LVU217
	bl	fn_circBuffEmpty
.LVL85:
	.loc 1 137 11 view .LVU218
	cbnz	r0, .L92
	.loc 1 138 17 is_stmt 1 view .LVU219
	.loc 1 138 26 is_stmt 0 view .LVU220
	ldr	r3, [r6, #4]
	.loc 1 138 19 view .LVU221
	cbnz	r3, .L91
	.loc 1 139 21 is_stmt 1 view .LVU222
	.loc 1 139 45 is_stmt 0 view .LVU223
	ldr	r3, [r6, #12]
	.loc 1 139 54 view .LVU224
	subs	r3, r3, #1
	.loc 1 139 36 view .LVU225
	str	r3, [r6, #4]
	.loc 1 140 17 is_stmt 1 view .LVU226
	.loc 1 140 45 is_stmt 0 view .LVU227
	ldrb	r3, [r5, r3]	@ zero_extendqisi2
	.loc 1 140 26 view .LVU228
	strb	r3, [r4]
	.loc 1 141 17 is_stmt 1 view .LVU229
.LVL86:
	.loc 1 141 19 is_stmt 0 view .LVU230
	movs	r0, #1
	b	.L90
.LVL87:
.L88:
	.loc 1 133 22 discriminator 5 view .LVU231
	ldr	r3, .L94
	ldr	r2, .L94+4
	movs	r1, #133
.LVL88:
	.loc 1 133 22 discriminator 5 view .LVU232
	ldr	r0, .L94+8
.LVL89:
	.loc 1 133 22 discriminator 5 view .LVU233
	bl	__assert_func
.LVL90:
.L91:
	.loc 1 144 17 is_stmt 1 view .LVU234
	.loc 1 144 46 is_stmt 0 view .LVU235
	subs	r3, r3, #1
	.loc 1 144 26 view .LVU236
	str	r3, [r6, #4]
	.loc 1 144 45 view .LVU237
	ldrb	r3, [r5, r3]	@ zero_extendqisi2
	.loc 1 144 26 view .LVU238
	strb	r3, [r4]
	.loc 1 145 13 is_stmt 1 view .LVU239
.LVL91:
	.loc 1 145 15 is_stmt 0 view .LVU240
	movs	r0, #1
	b	.L90
.LVL92:
.L92:
	.loc 1 135 13 view .LVU241
	movs	r0, #0
.LVL93:
.L90:
	.loc 1 149 9 is_stmt 1 view .LVU242
	.loc 1 150 5 is_stmt 0 view .LVU243
	pop	{r4, r5, r6, pc}
.LVL94:
.L95:
	.loc 1 150 5 view .LVU244
	.align	2
.L94:
	.word	.LC7
	.word	.LANCHOR10
	.word	.LC1
	.cfi_endproc
.LFE15:
	.size	fn_circBuffGetMostRecent, .-fn_circBuffGetMostRecent
	.section	.text._write,"ax",%progbits
	.align	1
	.global	_write
	.syntax unified
	.thumb
	.thumb_func
	.type	_write, %function
_write:
.LVL95:
.LFB16:
	.file 3 "Source/m2a.c"
	.loc 3 27 41 is_stmt 1 view -0
	.cfi_startproc
	@ args = 0, pretend = 0, frame = 0
	@ frame_needed = 0, uses_anonymous_args = 0
	.loc 3 27 41 is_stmt 0 view .LVU246
	push	{r3, r4, r5, r6, r7, lr}
.LCFI15:
	.cfi_def_cfa_offset 24
	.cfi_offset 3, -24
	.cfi_offset 4, -20
	.cfi_offset 5, -16
	.cfi_offset 6, -12
	.cfi_offset 7, -8
	.cfi_offset 14, -4
	.loc 3 28 5 is_stmt 1 view .LVU247
	.loc 3 30 5 view .LVU248
	.loc 3 30 30 is_stmt 0 view .LVU249
	subs	r0, r0, #1
.LVL96:
	.loc 3 30 8 view .LVU250
	cmp	r0, #1
	bhi	.L105
	mov	r5, r1
	mov	r7, r2
	.loc 3 31 12 view .LVU251
	movs	r4, #0
	b	.L97
.LVL97:
.L99:
	.loc 3 35 7 is_stmt 1 discriminator 2 view .LVU252
	ldrb	r1, [r6]	@ zero_extendqisi2
	ldr	r0, .L106
	bl	usart_send_blocking
.LVL98:
	.loc 3 31 26 discriminator 2 view .LVU253
	.loc 3 31 27 is_stmt 0 discriminator 2 view .LVU254
	adds	r4, r4, #1
.LVL99:
.L97:
	.loc 3 31 17 is_stmt 1 discriminator 1 view .LVU255
	.loc 3 31 6 is_stmt 0 discriminator 1 view .LVU256
	cmp	r4, r7
	bge	.L96
	.loc 3 32 7 is_stmt 1 view .LVU257
	.loc 3 32 13 is_stmt 0 view .LVU258
	adds	r6, r5, r4
	ldrb	r3, [r5, r4]	@ zero_extendqisi2
	.loc 3 32 9 view .LVU259
	cmp	r3, #10
	bne	.L99
	.loc 3 33 8 is_stmt 1 view .LVU260
	movs	r1, #13
	ldr	r0, .L106
	bl	usart_send_blocking
.LVL100:
	b	.L99
.LVL101:
.L105:
	.loc 3 41 4 view .LVU261
	.loc 3 41 6 is_stmt 0 view .LVU262
	bl	__errno
.LVL102:
	.loc 3 41 10 view .LVU263
	movs	r3, #5
	str	r3, [r0]
	.loc 3 42 5 is_stmt 1 view .LVU264
	.loc 3 42 12 is_stmt 0 view .LVU265
	mov	r4, #-1
.L96:
	.loc 3 43 1 view .LVU266
	mov	r0, r4
	pop	{r3, r4, r5, r6, r7, pc}
.L107:
	.align	2
.L106:
	.word	1073759232
	.cfi_endproc
.LFE16:
	.size	_write, .-_write
	.section	.text.fn_convertToCaps,"ax",%progbits
	.align	1
	.global	fn_convertToCaps
	.syntax unified
	.thumb
	.thumb_func
	.type	fn_convertToCaps, %function
fn_convertToCaps:
.LVL103:
.LFB18:
	.loc 3 109 40 is_stmt 1 view -0
	.cfi_startproc
	@ args = 0, pretend = 0, frame = 0
	@ frame_needed = 0, uses_anonymous_args = 0
	@ link register save eliminated.
	.loc 3 110 3 view .LVU268
	.loc 3 110 6 is_stmt 0 view .LVU269
	ldrb	r2, [r0]	@ zero_extendqisi2
	.loc 3 110 25 view .LVU270
	sub	r3, r2, #97
	uxtb	r3, r3
	.loc 3 110 5 view .LVU271
	cmp	r3, #25
	bhi	.L108
	.loc 3 111 5 is_stmt 1 view .LVU272
	.loc 3 111 39 is_stmt 0 view .LVU273
	subs	r2, r2, #32
	.loc 3 111 17 view .LVU274
	strb	r2, [r0]
.L108:
	.loc 3 112 1 view .LVU275
	bx	lr
	.cfi_endproc
.LFE18:
	.size	fn_convertToCaps, .-fn_convertToCaps
	.section	.text.fn_encryptText,"ax",%progbits
	.align	1
	.global	fn_encryptText
	.syntax unified
	.thumb
	.thumb_func
	.type	fn_encryptText, %function
fn_encryptText:
.LVL104:
.LFB19:
	.loc 3 115 38 is_stmt 1 view -0
	.cfi_startproc
	@ args = 0, pretend = 0, frame = 0
	@ frame_needed = 0, uses_anonymous_args = 0
	@ link register save eliminated.
	.loc 3 115 38 is_stmt 0 view .LVU277
	push	{r4}
.LCFI16:
	.cfi_def_cfa_offset 4
	.cfi_offset 4, -4
	.loc 3 116 3 is_stmt 1 view .LVU278
	.loc 3 118 3 view .LVU279
	.loc 3 118 32 is_stmt 0 view .LVU280
	subs	r0, r0, #65
.LVL105:
	.loc 3 118 51 view .LVU281
	ldr	r4, .L114
	ldrb	r3, [r4]	@ zero_extendqisi2
	ldr	r2, .L114+4
	ldrb	r2, [r2, r3]	@ zero_extendqisi2
	.loc 3 118 72 view .LVU282
	subs	r2, r2, #65
	.loc 3 118 39 view .LVU283
	add	r2, r2, r0
	.loc 3 118 80 view .LVU284
	ldr	r1, .L114+8
	smull	r0, r1, r1, r2
	asrs	r0, r2, #31
	rsb	r0, r0, r1, asr #3
	movs	r1, #26
	mls	r0, r1, r0, r2
	.loc 3 118 86 view .LVU285
	uxtb	r0, r0
	.loc 3 118 15 view .LVU286
	adds	r0, r0, #65
	uxtb	r0, r0
.LVL106:
	.loc 3 119 3 is_stmt 1 view .LVU287
	adds	r3, r3, #1
	uxtb	r3, r3
	strb	r3, [r4]
	.loc 3 121 3 view .LVU288
	.loc 3 121 22 is_stmt 0 view .LVU289
	cmp	r3, #13
	beq	.L113
.L111:
	.loc 3 121 22 discriminator 4 view .LVU290
	ldr	r2, .L114
	strb	r3, [r2]
	.loc 3 123 3 is_stmt 1 discriminator 4 view .LVU291
	.loc 3 124 1 is_stmt 0 discriminator 4 view .LVU292
	ldr	r4, [sp], #4
.LCFI17:
	.cfi_remember_state
	.cfi_restore 4
	.cfi_def_cfa_offset 0
	bx	lr
.L113:
.LCFI18:
	.cfi_restore_state
	.loc 3 121 22 view .LVU293
	movs	r3, #0
	b	.L111
.L115:
	.align	2
.L114:
	.word	.LANCHOR11
	.word	.LANCHOR12
	.word	1321528399
	.cfi_endproc
.LFE19:
	.size	fn_encryptText, .-fn_encryptText
	.section	.text.fn_decryptText,"ax",%progbits
	.align	1
	.global	fn_decryptText
	.syntax unified
	.thumb
	.thumb_func
	.type	fn_decryptText, %function
fn_decryptText:
.LVL107:
.LFB20:
	.loc 3 127 38 is_stmt 1 view -0
	.cfi_startproc
	@ args = 0, pretend = 0, frame = 0
	@ frame_needed = 0, uses_anonymous_args = 0
	@ link register save eliminated.
	.loc 3 127 38 is_stmt 0 view .LVU295
	push	{r4}
.LCFI19:
	.cfi_def_cfa_offset 4
	.cfi_offset 4, -4
	.loc 3 128 3 is_stmt 1 view .LVU296
	.loc 3 130 3 view .LVU297
	.loc 3 130 42 is_stmt 0 view .LVU298
	ldr	r4, .L120
	ldrb	r3, [r4]	@ zero_extendqisi2
	ldr	r2, .L120+4
	ldrb	r2, [r2, r3]	@ zero_extendqisi2
	.loc 3 130 31 view .LVU299
	subs	r2, r0, r2
	.loc 3 130 63 view .LVU300
	adds	r2, r2, #26
	.loc 3 130 69 view .LVU301
	ldr	r1, .L120+8
	smull	r0, r1, r1, r2
.LVL108:
	.loc 3 130 69 view .LVU302
	asrs	r0, r2, #31
	rsb	r0, r0, r1, asr #3
	movs	r1, #26
	mls	r0, r1, r0, r2
	.loc 3 130 75 view .LVU303
	uxtb	r0, r0
	.loc 3 130 15 view .LVU304
	adds	r0, r0, #65
	uxtb	r0, r0
.LVL109:
	.loc 3 132 3 is_stmt 1 view .LVU305
	adds	r3, r3, #1
	uxtb	r3, r3
	strb	r3, [r4]
	.loc 3 134 3 view .LVU306
	.loc 3 134 22 is_stmt 0 view .LVU307
	cmp	r3, #13
	beq	.L119
.L117:
	.loc 3 134 22 discriminator 4 view .LVU308
	ldr	r2, .L120
	strb	r3, [r2]
	.loc 3 136 3 is_stmt 1 discriminator 4 view .LVU309
	.loc 3 137 1 is_stmt 0 discriminator 4 view .LVU310
	ldr	r4, [sp], #4
.LCFI20:
	.cfi_remember_state
	.cfi_restore 4
	.cfi_def_cfa_offset 0
	bx	lr
.L119:
.LCFI21:
	.cfi_restore_state
	.loc 3 134 22 view .LVU311
	movs	r3, #0
	b	.L117
.L121:
	.align	2
.L120:
	.word	.LANCHOR13
	.word	.LANCHOR12
	.word	1321528399
	.cfi_endproc
.LFE20:
	.size	fn_decryptText, .-fn_decryptText
	.section	.text.setup_tim3,"ax",%progbits
	.align	1
	.global	setup_tim3
	.syntax unified
	.thumb
	.thumb_func
	.type	setup_tim3, %function
setup_tim3:
.LFB21:
	.loc 3 139 18 is_stmt 1 view -0
	.cfi_startproc
	@ args = 0, pretend = 0, frame = 0
	@ frame_needed = 0, uses_anonymous_args = 0
	push	{r4, lr}
.LCFI22:
	.cfi_def_cfa_offset 8
	.cfi_offset 4, -8
	.cfi_offset 14, -4
	.loc 3 140 3 view .LVU313
	movw	r0, #1793
	bl	rcc_periph_reset_pulse
.LVL110:
	.loc 3 141 2 view .LVU314
	ldr	r4, .L124
	movs	r1, #200
	mov	r0, r4
	bl	timer_set_prescaler
.LVL111:
	.loc 3 143 3 view .LVU315
	movw	r1, #10000
	mov	r0, r4
	bl	timer_set_period
.LVL112:
	.loc 3 144 2 view .LVU316
	mov	r0, r4
	bl	timer_enable_counter
.LVL113:
	.loc 3 145 2 view .LVU317
	movs	r1, #2
	mov	r0, r4
	bl	timer_enable_irq
.LVL114:
	.loc 3 146 1 is_stmt 0 view .LVU318
	pop	{r4, pc}
.L125:
	.align	2
.L124:
	.word	1073742848
	.cfi_endproc
.LFE21:
	.size	setup_tim3, .-setup_tim3
	.section	.rodata.main.str1.4,"aMS",%progbits,1
	.align	2
.LC8:
	.ascii	"Indeterminate button state!... Defaulting to Encryp"
	.ascii	"t!\000"
	.section	.text.main,"ax",%progbits
	.align	1
	.global	main
	.syntax unified
	.thumb
	.thumb_func
	.type	main, %function
main:
.LFB17:
	.loc 3 47 16 is_stmt 1 view -0
	.cfi_startproc
	@ Volatile: function does not return.
	@ args = 0, pretend = 0, frame = 8
	@ frame_needed = 0, uses_anonymous_args = 0
	push	{lr}
.LCFI23:
	.cfi_def_cfa_offset 4
	.cfi_offset 14, -4
	sub	sp, sp, #12
.LCFI24:
	.cfi_def_cfa_offset 16
	.loc 3 50 3 view .LVU320
	.loc 3 51 3 view .LVU321
	.loc 3 52 3 view .LVU322
	mov	r2, #256
	ldr	r1, .L140
	ldr	r0, .L140+4
	bl	fn_circBuffInit
.LVL115:
	.loc 3 54 3 view .LVU323
	.loc 3 54 8 is_stmt 0 view .LVU324
	movs	r4, #0
	strb	r4, [sp, #7]
	.loc 3 57 3 is_stmt 1 view .LVU325
	bl	clock_setup
.LVL116:
	.loc 3 58 3 view .LVU326
	bl	usart_setup
.LVL117:
	.loc 3 59 3 view .LVU327
	bl	setup_tim3
.LVL118:
	.loc 3 61 3 view .LVU328
	movs	r3, #32
	movs	r2, #1
	mov	r1, r2
	mov	r0, #1207959552
	bl	gpio_mode_setup
.LVL119:
	.loc 3 62 3 view .LVU329
	mov	r3, #8192
	mov	r2, r4
	mov	r1, r4
	ldr	r0, .L140+8
	bl	gpio_mode_setup
.LVL120:
	.loc 3 64 3 view .LVU330
	movs	r1, #32
	mov	r0, #1207959552
	bl	gpio_clear
.LVL121:
	b	.L132
.L139:
	.loc 3 70 7 view .LVU331
	.loc 3 70 42 is_stmt 0 view .LVU332
	ldr	r0, .L140+12
	bl	usart_recv_blocking
.LVL122:
	.loc 3 70 7 view .LVU333
	uxtb	r1, r0
	ldr	r0, .L140+4
	bl	fn_circBuffPut
.LVL123:
	b	.L127
.L129:
	.loc 3 80 12 is_stmt 1 view .LVU334
	.loc 3 80 16 is_stmt 0 view .LVU335
	mov	r1, #8192
	ldr	r0, .L140+8
	bl	gpio_get
.LVL124:
	.loc 3 80 14 view .LVU336
	cbz	r0, .L131
	.loc 3 81 9 is_stmt 1 view .LVU337
	.loc 3 81 24 is_stmt 0 view .LVU338
	ldrb	r0, [sp, #7]	@ zero_extendqisi2
	bl	fn_encryptText
.LVL125:
	.loc 3 81 22 view .LVU339
	strb	r0, [sp, #7]
.L130:
	.loc 3 89 7 is_stmt 1 view .LVU340
	.loc 3 89 10 is_stmt 0 view .LVU341
	movs	r1, #128
	ldr	r0, .L140+12
	bl	usart_get_flag
.LVL126:
	.loc 3 89 9 view .LVU342
	cbnz	r0, .L137
.L128:
	.loc 3 94 5 is_stmt 1 view .LVU343
	.loc 3 94 8 is_stmt 0 view .LVU344
	movs	r1, #2
	ldr	r0, .L140+16
	bl	timer_get_flag
.LVL127:
	.loc 3 94 7 view .LVU345
	cbnz	r0, .L138
.L132:
	.loc 3 66 3 is_stmt 1 view .LVU346
	.loc 3 69 5 view .LVU347
	.loc 3 69 8 is_stmt 0 view .LVU348
	movs	r1, #32
	ldr	r0, .L140+12
	bl	usart_get_flag
.LVL128:
	.loc 3 69 7 view .LVU349
	cmp	r0, #0
	bne	.L139
.L127:
	.loc 3 73 5 is_stmt 1 view .LVU350
	.loc 3 73 9 is_stmt 0 view .LVU351
	ldr	r0, .L140+4
	bl	fn_circBuffEmpty
.LVL129:
	.loc 3 73 7 view .LVU352
	cmp	r0, #0
	bne	.L128
	.loc 3 74 7 is_stmt 1 view .LVU353
	add	r1, sp, #7
	ldr	r0, .L140+4
	bl	fn_circBuffGet
.LVL130:
	.loc 3 75 7 view .LVU354
	add	r0, sp, #7
	bl	fn_convertToCaps
.LVL131:
	.loc 3 77 7 view .LVU355
	.loc 3 77 13 is_stmt 0 view .LVU356
	mov	r1, #8192
	ldr	r0, .L140+8
	bl	gpio_get
.LVL132:
	.loc 3 77 9 view .LVU357
	cmp	r0, #8192
	beq	.L129
	.loc 3 78 9 is_stmt 1 view .LVU358
	.loc 3 78 24 is_stmt 0 view .LVU359
	ldrb	r0, [sp, #7]	@ zero_extendqisi2
	bl	fn_decryptText
.LVL133:
	.loc 3 78 22 view .LVU360
	strb	r0, [sp, #7]
	b	.L130
.L131:
	.loc 3 84 9 is_stmt 1 view .LVU361
	ldr	r0, .L140+20
	bl	printf
.LVL134:
	.loc 3 85 9 view .LVU362
	.loc 3 85 24 is_stmt 0 view .LVU363
	ldrb	r0, [sp, #7]	@ zero_extendqisi2
	bl	fn_encryptText
.LVL135:
	.loc 3 85 22 view .LVU364
	strb	r0, [sp, #7]
	b	.L130
.L137:
	.loc 3 90 9 is_stmt 1 view .LVU365
	ldrb	r1, [sp, #7]	@ zero_extendqisi2
	ldr	r0, .L140+12
	bl	usart_send_blocking
.LVL136:
	b	.L128
.L138:
	.loc 3 95 7 view .LVU366
	movs	r1, #2
	ldr	r0, .L140+16
	bl	timer_clear_flag
.LVL137:
	.loc 3 97 7 view .LVU367
	.loc 3 97 13 is_stmt 0 view .LVU368
	mov	r1, #8192
	ldr	r0, .L140+8
	bl	gpio_get
.LVL138:
	.loc 3 97 9 view .LVU369
	cmp	r0, #8192
	beq	.L133
	.loc 3 98 9 is_stmt 1 view .LVU370
	movw	r1, #2500
	ldr	r0, .L140+16
	bl	timer_set_period
.LVL139:
.L134:
	.loc 3 102 7 view .LVU371
	movs	r1, #32
	mov	r0, #1207959552
	bl	gpio_toggle
.LVL140:
	b	.L132
.L133:
	.loc 3 100 9 view .LVU372
	movw	r1, #10000
	ldr	r0, .L140+16
	bl	timer_set_period
.LVL141:
	b	.L134
.L141:
	.align	2
.L140:
	.word	.LANCHOR14
	.word	.LANCHOR15
	.word	1207961600
	.word	1073759232
	.word	1073742848
	.word	.LC8
	.cfi_endproc
.LFE17:
	.size	main, .-main
	.global	ac_CIPHER
	.section	.bss.buffer.2,"aw",%nobits
	.align	2
	.set	.LANCHOR14,. + 0
	.type	buffer.2, %object
	.size	buffer.2, 256
buffer.2:
	.space	256
	.section	.bss.st_circularBuffer.3,"aw",%nobits
	.align	2
	.set	.LANCHOR15,. + 0
	.type	st_circularBuffer.3, %object
	.size	st_circularBuffer.3, 20
st_circularBuffer.3:
	.space	20
	.section	.bss.u8_cipherDPosition.0,"aw",%nobits
	.set	.LANCHOR13,. + 0
	.type	u8_cipherDPosition.0, %object
	.size	u8_cipherDPosition.0, 1
u8_cipherDPosition.0:
	.space	1
	.section	.bss.u8_cipherEPosition.1,"aw",%nobits
	.set	.LANCHOR11,. + 0
	.type	u8_cipherEPosition.1, %object
	.size	u8_cipherEPosition.1, 1
u8_cipherEPosition.1:
	.space	1
	.section	.rodata.__func__.10,"a"
	.align	2
	.set	.LANCHOR6,. + 0
	.type	__func__.10, %object
	.size	__func__.10, 20
__func__.10:
	.ascii	"fn_circBuffCapacity\000"
	.section	.rodata.__func__.11,"a"
	.align	2
	.set	.LANCHOR5,. + 0
	.type	__func__.11, %object
	.size	__func__.11, 16
__func__.11:
	.ascii	"fn_circBuffFull\000"
	.section	.rodata.__func__.12,"a"
	.align	2
	.set	.LANCHOR4,. + 0
	.type	__func__.12, %object
	.size	__func__.12, 16
__func__.12:
	.ascii	"fn_circBuffInit\000"
	.section	.rodata.__func__.13,"a"
	.align	2
	.set	.LANCHOR3,. + 0
	.type	__func__.13, %object
	.size	__func__.13, 17
__func__.13:
	.ascii	"fn_circBuffEmpty\000"
	.section	.rodata.__func__.14,"a"
	.align	2
	.set	.LANCHOR2,. + 0
	.type	__func__.14, %object
	.size	__func__.14, 17
__func__.14:
	.ascii	"fn_circBuffReset\000"
	.section	.rodata.__func__.4,"a"
	.align	2
	.set	.LANCHOR10,. + 0
	.type	__func__.4, %object
	.size	__func__.4, 25
__func__.4:
	.ascii	"fn_circBuffGetMostRecent\000"
	.section	.rodata.__func__.5,"a"
	.align	2
	.set	.LANCHOR1,. + 0
	.type	__func__.5, %object
	.size	__func__.5, 18
__func__.5:
	.ascii	"fn_retreatPointer\000"
	.section	.rodata.__func__.6,"a"
	.align	2
	.set	.LANCHOR9,. + 0
	.type	__func__.6, %object
	.size	__func__.6, 15
__func__.6:
	.ascii	"fn_circBuffGet\000"
	.section	.rodata.__func__.7,"a"
	.align	2
	.set	.LANCHOR0,. + 0
	.type	__func__.7, %object
	.size	__func__.7, 18
__func__.7:
	.ascii	"fn_advancePointer\000"
	.section	.rodata.__func__.8,"a"
	.align	2
	.set	.LANCHOR8,. + 0
	.type	__func__.8, %object
	.size	__func__.8, 15
__func__.8:
	.ascii	"fn_circBuffPut\000"
	.section	.rodata.__func__.9,"a"
	.align	2
	.set	.LANCHOR7,. + 0
	.type	__func__.9, %object
	.size	__func__.9, 16
__func__.9:
	.ascii	"fn_circBuffSize\000"
	.section	.rodata.ac_CIPHER,"a"
	.align	2
	.set	.LANCHOR12,. + 0
	.type	ac_CIPHER, %object
	.size	ac_CIPHER, 13
ac_CIPHER:
	.ascii	"TENNESSEETECH"
	.text
.Letext0:
	.file 4 "/home/lubuntu/Documents/ARMToolchain/gcc-arm-none-eabi-10.3-2021.10/arm-none-eabi/include/machine/_default_types.h"
	.file 5 "/home/lubuntu/Documents/ARMToolchain/gcc-arm-none-eabi-10.3-2021.10/arm-none-eabi/include/sys/_stdint.h"
	.file 6 "/home/lubuntu/Documents/libOpenCM3/libopencm3/include/libopencm3/stm32/l4/rcc.h"
	.file 7 "/home/lubuntu/Documents/ARMToolchain/gcc-arm-none-eabi-10.3-2021.10/lib/gcc/arm-none-eabi/10.3.1/include/stddef.h"
	.file 8 "/home/lubuntu/Documents/libOpenCM3/libopencm3/include/libopencm3/stm32/common/rcc_common_all.h"
	.file 9 "/home/lubuntu/Documents/libOpenCM3/libopencm3/include/libopencm3/stm32/common/timer_common_all.h"
	.file 10 "/home/lubuntu/Documents/libOpenCM3/libopencm3/include/libopencm3/stm32/common/gpio_common_f234.h"
	.file 11 "/home/lubuntu/Documents/libOpenCM3/libopencm3/include/libopencm3/stm32/common/gpio_common_all.h"
	.file 12 "/home/lubuntu/Documents/libOpenCM3/libopencm3/include/libopencm3/stm32/common/usart_common_all.h"
	.file 13 "/home/lubuntu/Documents/ARMToolchain/gcc-arm-none-eabi-10.3-2021.10/arm-none-eabi/include/stdio.h"
	.file 14 "/home/lubuntu/Documents/ARMToolchain/gcc-arm-none-eabi-10.3-2021.10/arm-none-eabi/include/sys/errno.h"
	.file 15 "/home/lubuntu/Documents/ARMToolchain/gcc-arm-none-eabi-10.3-2021.10/arm-none-eabi/include/assert.h"