Archive member included to satisfy reference by file (symbol)

/home/lubuntu/Documents/ARMToolchain/gcc-arm-none-eabi-10.3-2021.10/bin/../lib/gcc/arm-none-eabi/10.3.1/../../../../arm-none-eabi/lib/thumb/v7e-m+fp/hard/libc_nano.a(lib_a-assert.o)
                              Build/m2a.o (__assert_func)
/home/lubuntu/Documents/ARMToolchain/gcc-arm-none-eabi-10.3-2021.10/bin/../lib/gcc/arm-none-eabi/10.3.1/../../../../arm-none-eabi/lib/thumb/v7e-m+fp/hard/libc_nano.a(lib_a-errno.o)
                              Build/m2a.o (__errno)
/home/lubuntu/Documents/ARMToolchain/gcc-arm-none-eabi-10.3-2021.10/bin/../lib/gcc/arm-none-eabi/10.3.1/../../../../arm-none-eabi/lib/thumb/v7e-m+fp/hard/libc_nano.a(lib_a-fprintf.o)
                              /home/lubuntu/Documents/ARMToolchain/gcc-arm-none-eabi-10.3-2021.10/bin/../lib/gcc/arm-none-eabi/10.3.1/../../../../arm-none-eabi/lib/thumb/v7e-m+fp/hard/libc_nano.a(lib_a-assert.o) (fiprintf)
/home/lubuntu/Documents/ARMToolchain/gcc-arm-none-eabi-10.3-2021.10/bin/../lib/gcc/arm-none-eabi/10.3.1/../../../../arm-none-eabi/lib/thumb/v7e-m+fp/hard/libc_nano.a(lib_a-impure.o)
                              /home/lubuntu/Documents/ARMToolchain/gcc-arm-none-eabi-10.3-2021.10/bin/../lib/gcc/arm-none-eabi/10.3.1/../../../../arm-none-eabi/lib/thumb/v7e-m+fp/hard/libc_nano.a(lib_a-assert.o) (_impure_ptr)
/home/lubuntu/Documents/ARMToolchain/gcc-arm-none-eabi-10.3-2021.10/bin/../lib/gcc/arm-none-eabi/10.3.1/../../../../arm-none-eabi/lib/thumb/v7e-m+fp/hard/libc_nano.a(lib_a-nano-vfprintf.o)
                              /home/lubuntu/Documents/ARMToolchain/gcc-arm-none-eabi-10.3-2021.10/bin/../lib/gcc/arm-none-eabi/10.3.1/../../../../arm-none-eabi/lib/thumb/v7e-m+fp/hard/libc_nano.a(lib_a-fprintf.o) (_vfprintf_r)
/home/lubuntu/Documents/ARMToolchain/gcc-arm-none-eabi-10.3-2021.10/bin/../lib/gcc/arm-none-eabi/10.3.1/../../../../arm-none-eabi/lib/thumb/v7e-m+fp/hard/libc_nano.a(lib_a-nano-vfprintf_i.o)
                              /home/lubuntu/Documents/ARMToolchain/gcc-arm-none-eabi-10.3-2021.10/bin/../lib/gcc/arm-none-eabi/10.3.1/../../../../arm-none-eabi/lib/thumb/v7e-m+fp/hard/libc_nano.a(lib_a-nano-vfprintf.o) (_printf_i)
/home/lubuntu/Documents/ARMToolchain/gcc-arm-none-eabi-10.3-2021.10/bin/../lib/gcc/arm-none-eabi/10.3.1/../../../../arm-none-eabi/lib/thumb/v7e-m+fp/hard/libc_nano.a(lib_a-printf.o)
                              Build/m2a.o (printf)
/home/lubuntu/Documents/ARMToolchain/gcc-arm-none-eabi-10.3-2021.10/bin/../lib/gcc/arm-none-eabi/10.3.1/../../../../arm-none-eabi/lib/thumb/v7e-m+fp/hard/libc_nano.a(lib_a-wbuf.o)
                              /home/lubuntu/Documents/ARMToolchain/gcc-arm-none-eabi-10.3-2021.10/bin/../lib/gcc/arm-none-eabi/10.3.1/../../../../arm-none-eabi/lib/thumb/v7e-m+fp/hard/libc_nano.a(lib_a-nano-vfprintf.o) (__swbuf_r)
/home/lubuntu/Documents/ARMToolchain/gcc-arm-none-eabi-10.3-2021.10/bin/../lib/gcc/arm-none-eabi/10.3.1/../../../../arm-none-eabi/lib/thumb/v7e-m+fp/hard/libc_nano.a(lib_a-wsetup.o)
                              /home/lubuntu/Documents/ARMToolchain/gcc-arm-none-eabi-10.3-2021.10/bin/../lib/gcc/arm-none-eabi/10.3.1/../../../../arm-none-eabi/lib/thumb/v7e-m+fp/hard/libc_nano.a(lib_a-nano-vfprintf.o) (__swsetup_r)
/home/lubuntu/Documents/ARMToolchain/gcc-arm-none-eabi-10.3-2021.10/bin/../lib/gcc/arm-none-eabi/10.3.1/../../../../arm-none-eabi/lib/thumb/v7e-m+fp/hard/libc_nano.a(lib_a-abort.o)
                              /home/lubuntu/Documents/ARMToolchain/gcc-arm-none-eabi-10.3-2021.10/bin/../lib/gcc/arm-none-eabi/10.3.1/../../../../arm-none-eabi/lib/thumb/v7e-m+fp/hard/libc_nano.a(lib_a-assert.o) (abort)
/home/lubuntu/Documents/ARMToolchain/gcc-arm-none-eabi-10.3-2021.10/bin/../lib/gcc/arm-none-eabi/10.3.1/../../../../arm-none-eabi/lib/thumb/v7e-m+fp/hard/libc_nano.a(lib_a-fflush.o)
                              /home/lubuntu/Documents/ARMToolchain/gcc-arm-none-eabi-10.3-2021.10/bin/../lib/gcc/arm-none-eabi/10.3.1/../../../../arm-none-eabi/lib/thumb/v7e-m+fp/hard/libc_nano.a(lib_a-wbuf.o) (_fflush_r)
/home/lubuntu/Documents/ARMToolchain/gcc-arm-none-eabi-10.3-2021.10/bin/../lib/gcc/arm-none-eabi/10.3.1/../../../../arm-none-eabi/lib/thumb/v7e-m+fp/hard/libc_nano.a(lib_a-findfp.o)
                              /home/lubuntu/Documents/ARMToolchain/gcc-arm-none-eabi-10.3-2021.10/bin/../lib/gcc/arm-none-eabi/10.3.1/../../../../arm-none-eabi/lib/thumb/v7e-m+fp/hard/libc_nano.a(lib_a-nano-vfprintf.o) (__sinit)
/home/lubuntu/Documents/ARMToolchain/gcc-arm-none-eabi-10.3-2021.10/bin/../lib/gcc/arm-none-eabi/10.3.1/../../../../arm-none-eabi/lib/thumb/v7e-m+fp/hard/libc_nano.a(lib_a-fvwrite.o)
                              /home/lubuntu/Documents/ARMToolchain/gcc-arm-none-eabi-10.3-2021.10/bin/../lib/gcc/arm-none-eabi/10.3.1/../../../../arm-none-eabi/lib/thumb/v7e-m+fp/hard/libc_nano.a(lib_a-nano-vfprintf.o) (__sfvwrite_r)
/home/lubuntu/Documents/ARMToolchain/gcc-arm-none-eabi-10.3-2021.10/bin/../lib/gcc/arm-none-eabi/10.3.1/../../../../arm-none-eabi/lib/thumb/v7e-m+fp/hard/libc_nano.a(lib_a-fwalk.o)
                              /home/lubuntu/Documents/ARMToolchain/gcc-arm-none-eabi-10.3-2021.10/bin/../lib/gcc/arm-none-eabi/10.3.1/../../../../arm-none-eabi/lib/thumb/v7e-m+fp/hard/libc_nano.a(lib_a-findfp.o) (_fwalk)
/home/lubuntu/Documents/ARMToolchain/gcc-arm-none-eabi-10.3-2021.10/bin/../lib/gcc/arm-none-eabi/10.3.1/../../../../arm-none-eabi/lib/thumb/v7e-m+fp/hard/libc_nano.a(lib_a-lock.o)
                              /home/lubuntu/Documents/ARMToolchain/gcc-arm-none-eabi-10.3-2021.10/bin/../lib/gcc/arm-none-eabi/10.3.1/../../../../arm-none-eabi/lib/thumb/v7e-m+fp/hard/libc_nano.a(lib_a-findfp.o) (__retarget_lock_init_recursive)
/home/lubuntu/Documents/ARMToolchain/gcc-arm-none-eabi-10.3-2021.10/bin/../lib/gcc/arm-none-eabi/10.3.1/../../../../arm-none-eabi/lib/thumb/v7e-m+fp/hard/libc_nano.a(lib_a-makebuf.o)
                              /home/lubuntu/Documents/ARMToolchain/gcc-arm-none-eabi-10.3-2021.10/bin/../lib/gcc/arm-none-eabi/10.3.1/../../../../arm-none-eabi/lib/thumb/v7e-m+fp/hard/libc_nano.a(lib_a-wsetup.o) (__smakebuf_r)
/home/lubuntu/Documents/ARMToolchain/gcc-arm-none-eabi-10.3-2021.10/bin/../lib/gcc/arm-none-eabi/10.3.1/../../../../arm-none-eabi/lib/thumb/v7e-m+fp/hard/libc_nano.a(lib_a-memchr.o)
                              /home/lubuntu/Documents/ARMToolchain/gcc-arm-none-eabi-10.3-2021.10/bin/../lib/gcc/arm-none-eabi/10.3.1/../../../../arm-none-eabi/lib/thumb/v7e-m+fp/hard/libc_nano.a(lib_a-nano-vfprintf.o) (memchr)
/home/lubuntu/Documents/ARMToolchain/gcc-arm-none-eabi-10.3-2021.10/bin/../lib/gcc/arm-none-eabi/10.3.1/../../../../arm-none-eabi/lib/thumb/v7e-m+fp/hard/libc_nano.a(lib_a-memcpy-stub.o)
                              /home/lubuntu/Documents/ARMToolchain/gcc-arm-none-eabi-10.3-2021.10/bin/../lib/gcc/arm-none-eabi/10.3.1/../../../../arm-none-eabi/lib/thumb/v7e-m+fp/hard/libc_nano.a(lib_a-fvwrite.o) (memcpy)
/home/lubuntu/Documents/ARMToolchain/gcc-arm-none-eabi-10.3-2021.10/bin/../lib/gcc/arm-none-eabi/10.3.1/../../../../arm-none-eabi/lib/thumb/v7e-m+fp/hard/libc_nano.a(lib_a-memmove.o)
                              /home/lubuntu/Documents/ARMToolchain/gcc-arm-none-eabi-10.3-2021.10/bin/../lib/gcc/arm-none-eabi/10.3.1/../../../../arm-none-eabi/lib/thumb/v7e-m+fp/hard/libc_nano.a(lib_a-fvwrite.o) (memmove)
/home/lubuntu/Documents/ARMToolchain/gcc-arm-none-eabi-10.3-2021.10/bin/../lib/gcc/arm-none-eabi/10.3.1/../../../../arm-none-eabi/lib/thumb/v7e-m+fp/hard/libc_nano.a(lib_a-memset.o)
                              /home/lubuntu/Documents/ARMToolchain/gcc-arm-none-eabi-10.3-2021.10/bin/../lib/gcc/arm-none-eabi/10.3.1/../../../../arm-none-eabi/lib/thumb/v7e-m+fp/hard/libc_nano.a(lib_a-findfp.o) (memset)
/home/lubuntu/Documents/ARMToolchain/gcc-arm-none-eabi-10.3-2021.10/bin/../lib/gcc/arm-none-eabi/10.3.1/../../../../arm-none-eabi/lib/thumb/v7e-m+fp/hard/libc_nano.a(lib_a-nano-freer.o)
                              /home/lubuntu/Documents/ARMToolchain/gcc-arm-none-eabi-10.3-2021.10/bin/../lib/gcc/arm-none-eabi/10.3.1/../../../../arm-none-eabi/lib/thumb/v7e-m+fp/hard/libc_nano.a(lib_a-wsetup.o) (_free_r)
/home/lubuntu/Documents/ARMToolchain/gcc-arm-none-eabi-10.3-2021.10/bin/../lib/gcc/arm-none-eabi/10.3.1/../../../../arm-none-eabi/lib/thumb/v7e-m+fp/hard/libc_nano.a(lib_a-nano-mallocr.o)
                              /home/lubuntu/Documents/ARMToolchain/gcc-arm-none-eabi-10.3-2021.10/bin/../lib/gcc/arm-none-eabi/10.3.1/../../../../arm-none-eabi/lib/thumb/v7e-m+fp/hard/libc_nano.a(lib_a-findfp.o) (_malloc_r)
/home/lubuntu/Documents/ARMToolchain/gcc-arm-none-eabi-10.3-2021.10/bin/../lib/gcc/arm-none-eabi/10.3.1/../../../../arm-none-eabi/lib/thumb/v7e-m+fp/hard/libc_nano.a(lib_a-nano-reallocr.o)
                              /home/lubuntu/Documents/ARMToolchain/gcc-arm-none-eabi-10.3-2021.10/bin/../lib/gcc/arm-none-eabi/10.3.1/../../../../arm-none-eabi/lib/thumb/v7e-m+fp/hard/libc_nano.a(lib_a-fvwrite.o) (_realloc_r)
/home/lubuntu/Documents/ARMToolchain/gcc-arm-none-eabi-10.3-2021.10/bin/../lib/gcc/arm-none-eabi/10.3.1/../../../../arm-none-eabi/lib/thumb/v7e-m+fp/hard/libc_nano.a(lib_a-sbrkr.o)
                              /home/lubuntu/Documents/ARMToolchain/gcc-arm-none-eabi-10.3-2021.10/bin/../lib/gcc/arm-none-eabi/10.3.1/../../../../arm-none-eabi/lib/thumb/v7e-m+fp/hard/libc_nano.a(lib_a-nano-mallocr.o) (_sbrk_r)
/home/lubuntu/Documents/ARMToolchain/gcc-arm-none-eabi-10.3-2021.10/bin/../lib/gcc/arm-none-eabi/10.3.1/../../../../arm-none-eabi/lib/thumb/v7e-m+fp/hard/libc_nano.a(lib_a-signal.o)
                              /home/lubuntu/Documents/ARMToolchain/gcc-arm-none-eabi-10.3-2021.10/bin/../lib/gcc/arm-none-eabi/10.3.1/../../../../arm-none-eabi/lib/thumb/v7e-m+fp/hard/libc_nano.a(lib_a-abort.o) (raise)
/home/lubuntu/Documents/ARMToolchain/gcc-arm-none-eabi-10.3-2021.10/bin/../lib/gcc/arm-none-eabi/10.3.1/../../../../arm-none-eabi/lib/thumb/v7e-m+fp/hard/libc_nano.a(lib_a-signalr.o)
                              /home/lubuntu/Documents/ARMToolchain/gcc-arm-none-eabi-10.3-2021.10/bin/../lib/gcc/arm-none-eabi/10.3.1/../../../../arm-none-eabi/lib/thumb/v7e-m+fp/hard/libc_nano.a(lib_a-signal.o) (_kill_r)
/home/lubuntu/Documents/ARMToolchain/gcc-arm-none-eabi-10.3-2021.10/bin/../lib/gcc/arm-none-eabi/10.3.1/../../../../arm-none-eabi/lib/thumb/v7e-m+fp/hard/libc_nano.a(lib_a-stdio.o)
                              /home/lubuntu/Documents/ARMToolchain/gcc-arm-none-eabi-10.3-2021.10/bin/../lib/gcc/arm-none-eabi/10.3.1/../../../../arm-none-eabi/lib/thumb/v7e-m+fp/hard/libc_nano.a(lib_a-findfp.o) (__sread)
/home/lubuntu/Documents/ARMToolchain/gcc-arm-none-eabi-10.3-2021.10/bin/../lib/gcc/arm-none-eabi/10.3.1/../../../../arm-none-eabi/lib/thumb/v7e-m+fp/hard/libc_nano.a(lib_a-writer.o)
                              /home/lubuntu/Documents/ARMToolchain/gcc-arm-none-eabi-10.3-2021.10/bin/../lib/gcc/arm-none-eabi/10.3.1/../../../../arm-none-eabi/lib/thumb/v7e-m+fp/hard/libc_nano.a(lib_a-stdio.o) (_write_r)
/home/lubuntu/Documents/ARMToolchain/gcc-arm-none-eabi-10.3-2021.10/bin/../lib/gcc/arm-none-eabi/10.3.1/../../../../arm-none-eabi/lib/thumb/v7e-m+fp/hard/libc_nano.a(lib_a-closer.o)
                              /home/lubuntu/Documents/ARMToolchain/gcc-arm-none-eabi-10.3-2021.10/bin/../lib/gcc/arm-none-eabi/10.3.1/../../../../arm-none-eabi/lib/thumb/v7e-m+fp/hard/libc_nano.a(lib_a-stdio.o) (_close_r)
/home/lubuntu/Documents/ARMToolchain/gcc-arm-none-eabi-10.3-2021.10/bin/../lib/gcc/arm-none-eabi/10.3.1/../../../../arm-none-eabi/lib/thumb/v7e-m+fp/hard/libc_nano.a(lib_a-fstatr.o)
                              /home/lubuntu/Documents/ARMToolchain/gcc-arm-none-eabi-10.3-2021.10/bin/../lib/gcc/arm-none-eabi/10.3.1/../../../../arm-none-eabi/lib/thumb/v7e-m+fp/hard/libc_nano.a(lib_a-makebuf.o) (_fstat_r)
/home/lubuntu/Documents/ARMToolchain/gcc-arm-none-eabi-10.3-2021.10/bin/../lib/gcc/arm-none-eabi/10.3.1/../../../../arm-none-eabi/lib/thumb/v7e-m+fp/hard/libc_nano.a(lib_a-isattyr.o)
                              /home/lubuntu/Documents/ARMToolchain/gcc-arm-none-eabi-10.3-2021.10/bin/../lib/gcc/arm-none-eabi/10.3.1/../../../../arm-none-eabi/lib/thumb/v7e-m+fp/hard/libc_nano.a(lib_a-makebuf.o) (_isatty_r)
/home/lubuntu/Documents/ARMToolchain/gcc-arm-none-eabi-10.3-2021.10/bin/../lib/gcc/arm-none-eabi/10.3.1/../../../../arm-none-eabi/lib/thumb/v7e-m+fp/hard/libc_nano.a(lib_a-lseekr.o)
                              /home/lubuntu/Documents/ARMToolchain/gcc-arm-none-eabi-10.3-2021.10/bin/../lib/gcc/arm-none-eabi/10.3.1/../../../../arm-none-eabi/lib/thumb/v7e-m+fp/hard/libc_nano.a(lib_a-stdio.o) (_lseek_r)
/home/lubuntu/Documents/ARMToolchain/gcc-arm-none-eabi-10.3-2021.10/bin/../lib/gcc/arm-none-eabi/10.3.1/../../../../arm-none-eabi/lib/thumb/v7e-m+fp/hard/libc_nano.a(lib_a-mlock.o)
                              /home/lubuntu/Documents/ARMToolchain/gcc-arm-none-eabi-10.3-2021.10/bin/../lib/gcc/arm-none-eabi/10.3.1/../../../../arm-none-eabi/lib/thumb/v7e-m+fp/hard/libc_nano.a(lib_a-nano-freer.o) (__malloc_lock)
/home/lubuntu/Documents/ARMToolchain/gcc-arm-none-eabi-10.3-2021.10/bin/../lib/gcc/arm-none-eabi/10.3.1/../../../../arm-none-eabi/lib/thumb/v7e-m+fp/hard/libc_nano.a(lib_a-nano-msizer.o)
                              /home/lubuntu/Documents/ARMToolchain/gcc-arm-none-eabi-10.3-2021.10/bin/../lib/gcc/arm-none-eabi/10.3.1/../../../../arm-none-eabi/lib/thumb/v7e-m+fp/hard/libc_nano.a(lib_a-nano-reallocr.o) (_malloc_usable_size_r)
/home/lubuntu/Documents/ARMToolchain/gcc-arm-none-eabi-10.3-2021.10/bin/../lib/gcc/arm-none-eabi/10.3.1/../../../../arm-none-eabi/lib/thumb/v7e-m+fp/hard/libc_nano.a(lib_a-readr.o)
                              /home/lubuntu/Documents/ARMToolchain/gcc-arm-none-eabi-10.3-2021.10/bin/../lib/gcc/arm-none-eabi/10.3.1/../../../../arm-none-eabi/lib/thumb/v7e-m+fp/hard/libc_nano.a(lib_a-stdio.o) (_read_r)
/home/lubuntu/Documents/ARMToolchain/gcc-arm-none-eabi-10.3-2021.10/bin/../lib/gcc/arm-none-eabi/10.3.1/../../../../arm-none-eabi/lib/thumb/v7e-m+fp/hard/libc_nano.a(lib_a-reent.o)
                              /home/lubuntu/Documents/ARMToolchain/gcc-arm-none-eabi-10.3-2021.10/bin/../lib/gcc/arm-none-eabi/10.3.1/../../../../arm-none-eabi/lib/thumb/v7e-m+fp/hard/libc_nano.a(lib_a-sbrkr.o) (errno)
/home/lubuntu/Documents/ARMToolchain/gcc-arm-none-eabi-10.3-2021.10/bin/../lib/gcc/arm-none-eabi/10.3.1/../../../../arm-none-eabi/lib/thumb/v7e-m+fp/hard/libnosys.a(close.o)
                              /home/lubuntu/Documents/ARMToolchain/gcc-arm-none-eabi-10.3-2021.10/bin/../lib/gcc/arm-none-eabi/10.3.1/../../../../arm-none-eabi/lib/thumb/v7e-m+fp/hard/libc_nano.a(lib_a-closer.o) (_close)
/home/lubuntu/Documents/ARMToolchain/gcc-arm-none-eabi-10.3-2021.10/bin/../lib/gcc/arm-none-eabi/10.3.1/../../../../arm-none-eabi/lib/thumb/v7e-m+fp/hard/libnosys.a(fstat.o)
                              /home/lubuntu/Documents/ARMToolchain/gcc-arm-none-eabi-10.3-2021.10/bin/../lib/gcc/arm-none-eabi/10.3.1/../../../../arm-none-eabi/lib/thumb/v7e-m+fp/hard/libc_nano.a(lib_a-fstatr.o) (_fstat)
/home/lubuntu/Documents/ARMToolchain/gcc-arm-none-eabi-10.3-2021.10/bin/../lib/gcc/arm-none-eabi/10.3.1/../../../../arm-none-eabi/lib/thumb/v7e-m+fp/hard/libnosys.a(getpid.o)
                              /home/lubuntu/Documents/ARMToolchain/gcc-arm-none-eabi-10.3-2021.10/bin/../lib/gcc/arm-none-eabi/10.3.1/../../../../arm-none-eabi/lib/thumb/v7e-m+fp/hard/libc_nano.a(lib_a-signalr.o) (_getpid)
/home/lubuntu/Documents/ARMToolchain/gcc-arm-none-eabi-10.3-2021.10/bin/../lib/gcc/arm-none-eabi/10.3.1/../../../../arm-none-eabi/lib/thumb/v7e-m+fp/hard/libnosys.a(isatty.o)
                              /home/lubuntu/Documents/ARMToolchain/gcc-arm-none-eabi-10.3-2021.10/bin/../lib/gcc/arm-none-eabi/10.3.1/../../../../arm-none-eabi/lib/thumb/v7e-m+fp/hard/libc_nano.a(lib_a-isattyr.o) (_isatty)
/home/lubuntu/Documents/ARMToolchain/gcc-arm-none-eabi-10.3-2021.10/bin/../lib/gcc/arm-none-eabi/10.3.1/../../../../arm-none-eabi/lib/thumb/v7e-m+fp/hard/libnosys.a(kill.o)
                              /home/lubuntu/Documents/ARMToolchain/gcc-arm-none-eabi-10.3-2021.10/bin/../lib/gcc/arm-none-eabi/10.3.1/../../../../arm-none-eabi/lib/thumb/v7e-m+fp/hard/libc_nano.a(lib_a-signalr.o) (_kill)
/home/lubuntu/Documents/ARMToolchain/gcc-arm-none-eabi-10.3-2021.10/bin/../lib/gcc/arm-none-eabi/10.3.1/../../../../arm-none-eabi/lib/thumb/v7e-m+fp/hard/libnosys.a(lseek.o)
                              /home/lubuntu/Documents/ARMToolchain/gcc-arm-none-eabi-10.3-2021.10/bin/../lib/gcc/arm-none-eabi/10.3.1/../../../../arm-none-eabi/lib/thumb/v7e-m+fp/hard/libc_nano.a(lib_a-lseekr.o) (_lseek)
/home/lubuntu/Documents/ARMToolchain/gcc-arm-none-eabi-10.3-2021.10/bin/../lib/gcc/arm-none-eabi/10.3.1/../../../../arm-none-eabi/lib/thumb/v7e-m+fp/hard/libnosys.a(read.o)
                              /home/lubuntu/Documents/ARMToolchain/gcc-arm-none-eabi-10.3-2021.10/bin/../lib/gcc/arm-none-eabi/10.3.1/../../../../arm-none-eabi/lib/thumb/v7e-m+fp/hard/libc_nano.a(lib_a-readr.o) (_read)
/home/lubuntu/Documents/ARMToolchain/gcc-arm-none-eabi-10.3-2021.10/bin/../lib/gcc/arm-none-eabi/10.3.1/../../../../arm-none-eabi/lib/thumb/v7e-m+fp/hard/libnosys.a(sbrk.o)
                              /home/lubuntu/Documents/ARMToolchain/gcc-arm-none-eabi-10.3-2021.10/bin/../lib/gcc/arm-none-eabi/10.3.1/../../../../arm-none-eabi/lib/thumb/v7e-m+fp/hard/libc_nano.a(lib_a-sbrkr.o) (_sbrk)
/home/lubuntu/Documents/ARMToolchain/gcc-arm-none-eabi-10.3-2021.10/bin/../lib/gcc/arm-none-eabi/10.3.1/../../../../arm-none-eabi/lib/thumb/v7e-m+fp/hard/libnosys.a(_exit.o)
                              /home/lubuntu/Documents/ARMToolchain/gcc-arm-none-eabi-10.3-2021.10/bin/../lib/gcc/arm-none-eabi/10.3.1/../../../../arm-none-eabi/lib/thumb/v7e-m+fp/hard/libc_nano.a(lib_a-abort.o) (_exit)
/home/lubuntu/Documents/libOpenCM3/libopencm3/lib/libopencm3_stm32l4.a(gpio_common_all.o)
                              Build/m2a.o (gpio_clear)
/home/lubuntu/Documents/libOpenCM3/libopencm3/lib/libopencm3_stm32l4.a(gpio_common_f0234.o)
                              Build/m2a.o (gpio_mode_setup)
/home/lubuntu/Documents/libOpenCM3/libopencm3/lib/libopencm3_stm32l4.a(rcc.o)
                              Build/m2a.o (rcc_osc_on)
/home/lubuntu/Documents/libOpenCM3/libopencm3/lib/libopencm3_stm32l4.a(rcc_common_all.o)
                              Build/m2a.o (rcc_periph_clock_enable)
/home/lubuntu/Documents/libOpenCM3/libopencm3/lib/libopencm3_stm32l4.a(timer_common_all.o)
                              Build/m2a.o (timer_enable_irq)
/home/lubuntu/Documents/libOpenCM3/libopencm3/lib/libopencm3_stm32l4.a(usart_common_all.o)
                              Build/m2a.o (usart_set_baudrate)
/home/lubuntu/Documents/libOpenCM3/libopencm3/lib/libopencm3_stm32l4.a(usart_common_v2.o)
                              /home/lubuntu/Documents/libOpenCM3/libopencm3/lib/libopencm3_stm32l4.a(usart_common_all.o) (usart_send)
/home/lubuntu/Documents/libOpenCM3/libopencm3/lib/libopencm3_stm32l4.a(vector.o)
                              (reset_handler)
/home/lubuntu/Documents/libOpenCM3/libopencm3/lib/libopencm3_stm32l4.a(assert.o)
                              /home/lubuntu/Documents/libOpenCM3/libopencm3/lib/libopencm3_stm32l4.a(rcc.o) (cm3_assert_failed)

Discarded input sections

 .text          0x0000000000000000        0x0 Build/m2a.o
 .data          0x0000000000000000        0x0 Build/m2a.o
 .bss           0x0000000000000000        0x0 Build/m2a.o
 .text.fn_circBuffFull
                0x0000000000000000       0x20 Build/m2a.o
 .text.fn_circBuffCapacity
                0x0000000000000000       0x20 Build/m2a.o
 .text.fn_circBuffSize
                0x0000000000000000       0x38 Build/m2a.o
 .rodata.fn_circBuffGetMostRecent.str1.4
                0x0000000000000000       0x27 Build/m2a.o
 .text.fn_circBuffGetMostRecent
                0x0000000000000000       0x50 Build/m2a.o
 .rodata.__func__.10
                0x0000000000000000       0x14 Build/m2a.o
 .rodata.__func__.11
                0x0000000000000000       0x10 Build/m2a.o
 .rodata.__func__.4
                0x0000000000000000       0x19 Build/m2a.o
 .rodata.__func__.9
                0x0000000000000000       0x10 Build/m2a.o
 .text          0x0000000000000000        0x0 /home/lubuntu/Documents/ARMToolchain/gcc-arm-none-eabi-10.3-2021.10/bin/../lib/gcc/arm-none-eabi/10.3.1/../../../../arm-none-eabi/lib/thumb/v7e-m+fp/hard/libc_nano.a(lib_a-assert.o)
 .data          0x0000000000000000        0x0 /home/lubuntu/Documents/ARMToolchain/gcc-arm-none-eabi-10.3-2021.10/bin/../lib/gcc/arm-none-eabi/10.3.1/../../../../arm-none-eabi/lib/thumb/v7e-m+fp/hard/libc_nano.a(lib_a-assert.o)
 .bss           0x0000000000000000        0x0 /home/lubuntu/Documents/ARMToolchain/gcc-arm-none-eabi-10.3-2021.10/bin/../lib/gcc/arm-none-eabi/10.3.1/../../../../arm-none-eabi/lib/thumb/v7e-m+fp/hard/libc_nano.a(lib_a-assert.o)
 .text.__assert
                0x0000000000000000        0xa /home/lubuntu/Documents/ARMToolchain/gcc-arm-none-eabi-10.3-2021.10/bin/../lib/gcc/arm-none-eabi/10.3.1/../../../../arm-none-eabi/lib/thumb/v7e-m+fp/hard/libc_nano.a(lib_a-assert.o)
 .text          0x0000000000000000        0x0 /home/lubuntu/Documents/ARMToolchain/gcc-arm-none-eabi-10.3-2021.10/bin/../lib/gcc/arm-none-eabi/10.3.1/../../../../arm-none-eabi/lib/thumb/v7e-m+fp/hard/libc_nano.a(lib_a-errno.o)
 .data          0x0000000000000000        0x0 /home/lubuntu/Documents/ARMToolchain/gcc-arm-none-eabi-10.3-2021.10/bin/../lib/gcc/arm-none-eabi/10.3.1/../../../../arm-none-eabi/lib/thumb/v7e-m+fp/hard/libc_nano.a(lib_a-errno.o)
 .bss           0x0000000000000000        0x0 /home/lubuntu/Documents/ARMToolchain/gcc-arm-none-eabi-10.3-2021.10/bin/../lib/gcc/arm-none-eabi/10.3.1/../../../../arm-none-eabi/lib/thumb/v7e-m+fp/hard/libc_nano.a(lib_a-errno.o)
 .text          0x0000000000000000        0x0 /home/lubuntu/Documents/ARMToolchain/gcc-arm-none-eabi-10.3-2021.10/bin/../lib/gcc/arm-none-eabi/10.3.1/../../../../arm-none-eabi/lib/thumb/v7e-m+fp/hard/libc_nano.a(lib_a-fprintf.o)
 .data          0x0000000000000000        0x0 /home/lubuntu/Documents/ARMToolchain/gcc-arm-none-eabi-10.3-2021.10/bin/../lib/gcc/arm-none-eabi/10.3.1/../../../../arm-none-eabi/lib/thumb/v7e-m+fp/hard/libc_nano.a(lib_a-fprintf.o)
 .bss           0x0000000000000000        0x0 /home/lubuntu/Documents/ARMToolchain/gcc-arm-none-eabi-10.3-2021.10/bin/../lib/gcc/arm-none-eabi/10.3.1/../../../../arm-none-eabi/lib/thumb/v7e-m+fp/hard/libc_nano.a(lib_a-fprintf.o)
 .text._fprintf_r
                0x0000000000000000       0x1a /home/lubuntu/Documents/ARMToolchain/gcc-arm-none-eabi-10.3-2021.10/bin/../lib/gcc/arm-none-eabi/10.3.1/../../../../arm-none-eabi/lib/thumb/v7e-m+fp/hard/libc_nano.a(lib_a-fprintf.o)
 .text          0x0000000000000000        0x0 /home/lubuntu/Documents/ARMToolchain/gcc-arm-none-eabi-10.3-2021.10/bin/../lib/gcc/arm-none-eabi/10.3.1/../../../../arm-none-eabi/lib/thumb/v7e-m+fp/hard/libc_nano.a(lib_a-impure.o)
 .data          0x0000000000000000        0x0 /home/lubuntu/Documents/ARMToolchain/gcc-arm-none-eabi-10.3-2021.10/bin/../lib/gcc/arm-none-eabi/10.3.1/../../../../arm-none-eabi/lib/thumb/v7e-m+fp/hard/libc_nano.a(lib_a-impure.o)
 .bss           0x0000000000000000        0x0 /home/lubuntu/Documents/ARMToolchain/gcc-arm-none-eabi-10.3-2021.10/bin/../lib/gcc/arm-none-eabi/10.3.1/../../../../arm-none-eabi/lib/thumb/v7e-m+fp/hard/libc_nano.a(lib_a-impure.o)
 .text          0x0000000000000000        0x0 /home/lubuntu/Documents/ARMToolchain/gcc-arm-none-eabi-10.3-2021.10/bin/../lib/gcc/arm-none-eabi/10.3.1/../../../../arm-none-eabi/lib/thumb/v7e-m+fp/hard/libc_nano.a(lib_a-nano-vfprintf.o)
 .data          0x0000000000000000        0x0 /home/lubuntu/Documents/ARMToolchain/gcc-arm-none-eabi-10.3-2021.10/bin/../lib/gcc/arm-none-eabi/10.3.1/../../../../arm-none-eabi/lib/thumb/v7e-m+fp/hard/libc_nano.a(lib_a-nano-vfprintf.o)
 .bss           0x0000000000000000        0x0 /home/lubuntu/Documents/ARMToolchain/gcc-arm-none-eabi-10.3-2021.10/bin/../lib/gcc/arm-none-eabi/10.3.1/../../../../arm-none-eabi/lib/thumb/v7e-m+fp/hard/libc_nano.a(lib_a-nano-vfprintf.o)
 .text.__sprint_r
                0x0000000000000000       0x1a /home/lubuntu/Documents/ARMToolchain/gcc-arm-none-eabi-10.3-2021.10/bin/../lib/gcc/arm-none-eabi/10.3.1/../../../../arm-none-eabi/lib/thumb/v7e-m+fp/hard/libc_nano.a(lib_a-nano-vfprintf.o)
 .text.vfprintf
                0x0000000000000000       0x14 /home/lubuntu/Documents/ARMToolchain/gcc-arm-none-eabi-10.3-2021.10/bin/../lib/gcc/arm-none-eabi/10.3.1/../../../../arm-none-eabi/lib/thumb/v7e-m+fp/hard/libc_nano.a(lib_a-nano-vfprintf.o)
 .text          0x0000000000000000        0x0 /home/lubuntu/Documents/ARMToolchain/gcc-arm-none-eabi-10.3-2021.10/bin/../lib/gcc/arm-none-eabi/10.3.1/../../../../arm-none-eabi/lib/thumb/v7e-m+fp/hard/libc_nano.a(lib_a-nano-vfprintf_i.o)
 .data          0x0000000000000000        0x0 /home/lubuntu/Documents/ARMToolchain/gcc-arm-none-eabi-10.3-2021.10/bin/../lib/gcc/arm-none-eabi/10.3.1/../../../../arm-none-eabi/lib/thumb/v7e-m+fp/hard/libc_nano.a(lib_a-nano-vfprintf_i.o)
 .bss           0x0000000000000000        0x0 /home/lubuntu/Documents/ARMToolchain/gcc-arm-none-eabi-10.3-2021.10/bin/../lib/gcc/arm-none-eabi/10.3.1/../../../../arm-none-eabi/lib/thumb/v7e-m+fp/hard/libc_nano.a(lib_a-nano-vfprintf_i.o)
 .text          0x0000000000000000        0x0 /home/lubuntu/Documents/ARMToolchain/gcc-arm-none-eabi-10.3-2021.10/bin/../lib/gcc/arm-none-eabi/10.3.1/../../../../arm-none-eabi/lib/thumb/v7e-m+fp/hard/libc_nano.a(lib_a-printf.o)
 .data          0x0000000000000000        0x0 /home/lubuntu/Documents/ARMToolchain/gcc-arm-none-eabi-10.3-2021.10/bin/../lib/gcc/arm-none-eabi/10.3.1/../../../../arm-none-eabi/lib/thumb/v7e-m+fp/hard/libc_nano.a(lib_a-printf.o)
 .bss           0x0000000000000000        0x0 /home/lubuntu/Documents/ARMToolchain/gcc-arm-none-eabi-10.3-2021.10/bin/../lib/gcc/arm-none-eabi/10.3.1/../../../../arm-none-eabi/lib/thumb/v7e-m+fp/hard/libc_nano.a(lib_a-printf.o)
 .text._printf_r
                0x0000000000000000       0x28 /home/lubuntu/Documents/ARMToolchain/gcc-arm-none-eabi-10.3-2021.10/bin/../lib/gcc/arm-none-eabi/10.3.1/../../../../arm-none-eabi/lib/thumb/v7e-m+fp/hard/libc_nano.a(lib_a-printf.o)
 .text          0x0000000000000000        0x0 /home/lubuntu/Documents/ARMToolchain/gcc-arm-none-eabi-10.3-2021.10/bin/../lib/gcc/arm-none-eabi/10.3.1/../../../../arm-none-eabi/lib/thumb/v7e-m+fp/hard/libc_nano.a(lib_a-wbuf.o)
 .data          0x0000000000000000        0x0 /home/lubuntu/Documents/ARMToolchain/gcc-arm-none-eabi-10.3-2021.10/bin/../lib/gcc/arm-none-eabi/10.3.1/../../../../arm-none-eabi/lib/thumb/v7e-m+fp/hard/libc_nano.a(lib_a-wbuf.o)
 .bss           0x0000000000000000        0x0 /home/lubuntu/Documents/ARMToolchain/gcc-arm-none-eabi-10.3-2021.10/bin/../lib/gcc/arm-none-eabi/10.3.1/../../../../arm-none-eabi/lib/thumb/v7e-m+fp/hard/libc_nano.a(lib_a-wbuf.o)
 .text.__swbuf  0x0000000000000000       0x10 /home/lubuntu/Documents/ARMToolchain/gcc-arm-none-eabi-10.3-2021.10/bin/../lib/gcc/arm-none-eabi/10.3.1/../../../../arm-none-eabi/lib/thumb/v7e-m+fp/hard/libc_nano.a(lib_a-wbuf.o)
 .text          0x0000000000000000        0x0 /home/lubuntu/Documents/ARMToolchain/gcc-arm-none-eabi-10.3-2021.10/bin/../lib/gcc/arm-none-eabi/10.3.1/../../../../arm-none-eabi/lib/thumb/v7e-m+fp/hard/libc_nano.a(lib_a-wsetup.o)
 .data          0x0000000000000000        0x0 /home/lubuntu/Documents/ARMToolchain/gcc-arm-none-eabi-10.3-2021.10/bin/../lib/gcc/arm-none-eabi/10.3.1/../../../../arm-none-eabi/lib/thumb/v7e-m+fp/hard/libc_nano.a(lib_a-wsetup.o)
 .bss           0x0000000000000000        0x0 /home/lubuntu/Documents/ARMToolchain/gcc-arm-none-eabi-10.3-2021.10/bin/../lib/gcc/arm-none-eabi/10.3.1/../../../../arm-none-eabi/lib/thumb/v7e-m+fp/hard/libc_nano.a(lib_a-wsetup.o)
 .text          0x0000000000000000        0x0 /home/lubuntu/Documents/ARMToolchain/gcc-arm-none-eabi-10.3-2021.10/bin/../lib/gcc/arm-none-eabi/10.3.1/../../../../arm-none-eabi/lib/thumb/v7e-m+fp/hard/libc_nano.a(lib_a-abort.o)
 .data          0x0000000000000000        0x0 /home/lubuntu/Documents/ARMToolchain/gcc-arm-none-eabi-10.3-2021.10/bin/../lib/gcc/arm-none-eabi/10.3.1/../../../../arm-none-eabi/lib/thumb/v7e-m+fp/hard/libc_nano.a(lib_a-abort.o)
 .bss           0x0000000000000000        0x0 /home/lubuntu/Documents/ARMToolchain/gcc-arm-none-eabi-10.3-2021.10/bin/../lib/gcc/arm-none-eabi/10.3.1/../../../../arm-none-eabi/lib/thumb/v7e-m+fp/hard/libc_nano.a(lib_a-abort.o)
 .text          0x0000000000000000        0x0 /home/lubuntu/Documents/ARMToolchain/gcc-arm-none-eabi-10.3-2021.10/bin/../lib/gcc/arm-none-eabi/10.3.1/../../../../arm-none-eabi/lib/thumb/v7e-m+fp/hard/libc_nano.a(lib_a-fflush.o)
 .data          0x0000000000000000        0x0 /home/lubuntu/Documents/ARMToolchain/gcc-arm-none-eabi-10.3-2021.10/bin/../lib/gcc/arm-none-eabi/10.3.1/../../../../arm-none-eabi/lib/thumb/v7e-m+fp/hard/libc_nano.a(lib_a-fflush.o)
 .bss           0x0000000000000000        0x0 /home/lubuntu/Documents/ARMToolchain/gcc-arm-none-eabi-10.3-2021.10/bin/../lib/gcc/arm-none-eabi/10.3.1/../../../../arm-none-eabi/lib/thumb/v7e-m+fp/hard/libc_nano.a(lib_a-fflush.o)
 .text.fflush   0x0000000000000000       0x24 /home/lubuntu/Documents/ARMToolchain/gcc-arm-none-eabi-10.3-2021.10/bin/../lib/gcc/arm-none-eabi/10.3.1/../../../../arm-none-eabi/lib/thumb/v7e-m+fp/hard/libc_nano.a(lib_a-fflush.o)
 .text          0x0000000000000000        0x0 /home/lubuntu/Documents/ARMToolchain/gcc-arm-none-eabi-10.3-2021.10/bin/../lib/gcc/arm-none-eabi/10.3.1/../../../../arm-none-eabi/lib/thumb/v7e-m+fp/hard/libc_nano.a(lib_a-findfp.o)
 .data          0x0000000000000000        0x0 /home/lubuntu/Documents/ARMToolchain/gcc-arm-none-eabi-10.3-2021.10/bin/../lib/gcc/arm-none-eabi/10.3.1/../../../../arm-none-eabi/lib/thumb/v7e-m+fp/hard/libc_nano.a(lib_a-findfp.o)
 .bss           0x0000000000000000        0x0 /home/lubuntu/Documents/ARMToolchain/gcc-arm-none-eabi-10.3-2021.10/bin/../lib/gcc/arm-none-eabi/10.3.1/../../../../arm-none-eabi/lib/thumb/v7e-m+fp/hard/libc_nano.a(lib_a-findfp.o)
 .text.__fp_lock
                0x0000000000000000       0x18 /home/lubuntu/Documents/ARMToolchain/gcc-arm-none-eabi-10.3-2021.10/bin/../lib/gcc/arm-none-eabi/10.3.1/../../../../arm-none-eabi/lib/thumb/v7e-m+fp/hard/libc_nano.a(lib_a-findfp.o)
 .text.__fp_unlock
                0x0000000000000000       0x18 /home/lubuntu/Documents/ARMToolchain/gcc-arm-none-eabi-10.3-2021.10/bin/../lib/gcc/arm-none-eabi/10.3.1/../../../../arm-none-eabi/lib/thumb/v7e-m+fp/hard/libc_nano.a(lib_a-findfp.o)
 .text._cleanup
                0x0000000000000000        0xc /home/lubuntu/Documents/ARMToolchain/gcc-arm-none-eabi-10.3-2021.10/bin/../lib/gcc/arm-none-eabi/10.3.1/../../../../arm-none-eabi/lib/thumb/v7e-m+fp/hard/libc_nano.a(lib_a-findfp.o)
 .text.__fp_lock_all
                0x0000000000000000       0x1c /home/lubuntu/Documents/ARMToolchain/gcc-arm-none-eabi-10.3-2021.10/bin/../lib/gcc/arm-none-eabi/10.3.1/../../../../arm-none-eabi/lib/thumb/v7e-m+fp/hard/libc_nano.a(lib_a-findfp.o)
 .text.__fp_unlock_all
                0x0000000000000000       0x1c /home/lubuntu/Documents/ARMToolchain/gcc-arm-none-eabi-10.3-2021.10/bin/../lib/gcc/arm-none-eabi/10.3.1/../../../../arm-none-eabi/lib/thumb/v7e-m+fp/hard/libc_nano.a(lib_a-findfp.o)
 .text          0x0000000000000000        0x0 /home/lubuntu/Documents/ARMToolchain/gcc-arm-none-eabi-10.3-2021.10/bin/../lib/gcc/arm-none-eabi/10.3.1/../../../../arm-none-eabi/lib/thumb/v7e-m+fp/hard/libc_nano.a(lib_a-fvwrite.o)
 .data          0x0000000000000000        0x0 /home/lubuntu/Documents/ARMToolchain/gcc-arm-none-eabi-10.3-2021.10/bin/../lib/gcc/arm-none-eabi/10.3.1/../../../../arm-none-eabi/lib/thumb/v7e-m+fp/hard/libc_nano.a(lib_a-fvwrite.o)
 .bss           0x0000000000000000        0x0 /home/lubuntu/Documents/ARMToolchain/gcc-arm-none-eabi-10.3-2021.10/bin/../lib/gcc/arm-none-eabi/10.3.1/../../../../arm-none-eabi/lib/thumb/v7e-m+fp/hard/libc_nano.a(lib_a-fvwrite.o)
 .text.__sfvwrite_r
                0x0000000000000000      0x294 /home/lubuntu/Documents/ARMToolchain/gcc-arm-none-eabi-10.3-2021.10/bin/../lib/gcc/arm-none-eabi/10.3.1/../../../../arm-none-eabi/lib/thumb/v7e-m+fp/hard/libc_nano.a(lib_a-fvwrite.o)
 .debug_frame   0x0000000000000000       0x3c /home/lubuntu/Documents/ARMToolchain/gcc-arm-none-eabi-10.3-2021.10/bin/../lib/gcc/arm-none-eabi/10.3.1/../../../../arm-none-eabi/lib/thumb/v7e-m+fp/hard/libc_nano.a(lib_a-fvwrite.o)
 .ARM.attributes
                0x0000000000000000       0x34 /home/lubuntu/Documents/ARMToolchain/gcc-arm-none-eabi-10.3-2021.10/bin/../lib/gcc/arm-none-eabi/10.3.1/../../../../arm-none-eabi/lib/thumb/v7e-m+fp/hard/libc_nano.a(lib_a-fvwrite.o)
 .text          0x0000000000000000        0x0 /home/lubuntu/Documents/ARMToolchain/gcc-arm-none-eabi-10.3-2021.10/bin/../lib/gcc/arm-none-eabi/10.3.1/../../../../arm-none-eabi/lib/thumb/v7e-m+fp/hard/libc_nano.a(lib_a-fwalk.o)
 .data          0x0000000000000000        0x0 /home/lubuntu/Documents/ARMToolchain/gcc-arm-none-eabi-10.3-2021.10/bin/../lib/gcc/arm-none-eabi/10.3.1/../../../../arm-none-eabi/lib/thumb/v7e-m+fp/hard/libc_nano.a(lib_a-fwalk.o)
 .bss           0x0000000000000000        0x0 /home/lubuntu/Documents/ARMToolchain/gcc-arm-none-eabi-10.3-2021.10/bin/../lib/gcc/arm-none-eabi/10.3.1/../../../../arm-none-eabi/lib/thumb/v7e-m+fp/hard/libc_nano.a(lib_a-fwalk.o)
 .text._fwalk   0x0000000000000000       0x3a /home/lubuntu/Documents/ARMToolchain/gcc-arm-none-eabi-10.3-2021.10/bin/../lib/gcc/arm-none-eabi/10.3.1/../../../../arm-none-eabi/lib/thumb/v7e-m+fp/hard/libc_nano.a(lib_a-fwalk.o)
 .text          0x0000000000000000        0x0 /home/lubuntu/Documents/ARMToolchain/gcc-arm-none-eabi-10.3-2021.10/bin/../lib/gcc/arm-none-eabi/10.3.1/../../../../arm-none-eabi/lib/thumb/v7e-m+fp/hard/libc_nano.a(lib_a-lock.o)
 .data          0x0000000000000000        0x0 /home/lubuntu/Documents/ARMToolchain/gcc-arm-none-eabi-10.3-2021.10/bin/../lib/gcc/arm-none-eabi/10.3.1/../../../../arm-none-eabi/lib/thumb/v7e-m+fp/hard/libc_nano.a(lib_a-lock.o)
 .bss           0x0000000000000000        0x0 /home/lubuntu/Documents/ARMToolchain/gcc-arm-none-eabi-10.3-2021.10/bin/../lib/gcc/arm-none-eabi/10.3.1/../../../../arm-none-eabi/lib/thumb/v7e-m+fp/hard/libc_nano.a(lib_a-lock.o)
 .text.__retarget_lock_init
                0x0000000000000000        0x2 /home/lubuntu/Documents/ARMToolchain/gcc-arm-none-eabi-10.3-2021.10/bin/../lib/gcc/arm-none-eabi/10.3.1/../../../../arm-none-eabi/lib/thumb/v7e-m+fp/hard/libc_nano.a(lib_a-lock.o)
 .text.__retarget_lock_close
                0x0000000000000000        0x2 /home/lubuntu/Documents/ARMToolchain/gcc-arm-none-eabi-10.3-2021.10/bin/../lib/gcc/arm-none-eabi/10.3.1/../../../../arm-none-eabi/lib/thumb/v7e-m+fp/hard/libc_nano.a(lib_a-lock.o)
 .text.__retarget_lock_close_recursive
                0x0000000000000000        0x2 /home/lubuntu/Documents/ARMToolchain/gcc-arm-none-eabi-10.3-2021.10/bin/../lib/gcc/arm-none-eabi/10.3.1/../../../../arm-none-eabi/lib/thumb/v7e-m+fp/hard/libc_nano.a(lib_a-lock.o)
 .text.__retarget_lock_acquire
                0x0000000000000000        0x2 /home/lubuntu/Documents/ARMToolchain/gcc-arm-none-eabi-10.3-2021.10/bin/../lib/gcc/arm-none-eabi/10.3.1/../../../../arm-none-eabi/lib/thumb/v7e-m+fp/hard/libc_nano.a(lib_a-lock.o)
 .text.__retarget_lock_try_acquire
                0x0000000000000000        0x4 /home/lubuntu/Documents/ARMToolchain/gcc-arm-none-eabi-10.3-2021.10/bin/../lib/gcc/arm-none-eabi/10.3.1/../../../../arm-none-eabi/lib/thumb/v7e-m+fp/hard/libc_nano.a(lib_a-lock.o)
 .text.__retarget_lock_try_acquire_recursive
                0x0000000000000000        0x4 /home/lubuntu/Documents/ARMToolchain/gcc-arm-none-eabi-10.3-2021.10/bin/../lib/gcc/arm-none-eabi/10.3.1/../../../../arm-none-eabi/lib/thumb/v7e-m+fp/hard/libc_nano.a(lib_a-lock.o)
 .text.__retarget_lock_release
                0x0000000000000000        0x2 /home/lubuntu/Documents/ARMToolchain/gcc-arm-none-eabi-10.3-2021.10/bin/../lib/gcc/arm-none-eabi/10.3.1/../../../../arm-none-eabi/lib/thumb/v7e-m+fp/hard/libc_nano.a(lib_a-lock.o)
 .bss.__lock___arc4random_mutex
                0x0000000000000000        0x1 /home/lubuntu/Documents/ARMToolchain/gcc-arm-none-eabi-10.3-2021.10/bin/../lib/gcc/arm-none-eabi/10.3.1/../../../../arm-none-eabi/lib/thumb/v7e-m+fp/hard/libc_nano.a(lib_a-lock.o)
 .bss.__lock___at_quick_exit_mutex
                0x0000000000000000        0x1 /home/lubuntu/Documents/ARMToolchain/gcc-arm-none-eabi-10.3-2021.10/bin/../lib/gcc/arm-none-eabi/10.3.1/../../../../arm-none-eabi/lib/thumb/v7e-m+fp/hard/libc_nano.a(lib_a-lock.o)
 .bss.__lock___atexit_recursive_mutex
                0x0000000000000000        0x1 /home/lubuntu/Documents/ARMToolchain/gcc-arm-none-eabi-10.3-2021.10/bin/../lib/gcc/arm-none-eabi/10.3.1/../../../../arm-none-eabi/lib/thumb/v7e-m+fp/hard/libc_nano.a(lib_a-lock.o)
 .bss.__lock___dd_hash_mutex
                0x0000000000000000        0x1 /home/lubuntu/Documents/ARMToolchain/gcc-arm-none-eabi-10.3-2021.10/bin/../lib/gcc/arm-none-eabi/10.3.1/../../../../arm-none-eabi/lib/thumb/v7e-m+fp/hard/libc_nano.a(lib_a-lock.o)
 .bss.__lock___env_recursive_mutex
                0x0000000000000000        0x1 /home/lubuntu/Documents/ARMToolchain/gcc-arm-none-eabi-10.3-2021.10/bin/../lib/gcc/arm-none-eabi/10.3.1/../../../../arm-none-eabi/lib/thumb/v7e-m+fp/hard/libc_nano.a(lib_a-lock.o)
 .bss.__lock___tz_mutex
                0x0000000000000000        0x1 /home/lubuntu/Documents/ARMToolchain/gcc-arm-none-eabi-10.3-2021.10/bin/../lib/gcc/arm-none-eabi/10.3.1/../../../../arm-none-eabi/lib/thumb/v7e-m+fp/hard/libc_nano.a(lib_a-lock.o)
 .text          0x0000000000000000        0x0 /home/lubuntu/Documents/ARMToolchain/gcc-arm-none-eabi-10.3-2021.10/bin/../lib/gcc/arm-none-eabi/10.3.1/../../../../arm-none-eabi/lib/thumb/v7e-m+fp/hard/libc_nano.a(lib_a-makebuf.o)
 .data          0x0000000000000000        0x0 /home/lubuntu/Documents/ARMToolchain/gcc-arm-none-eabi-10.3-2021.10/bin/../lib/gcc/arm-none-eabi/10.3.1/../../../../arm-none-eabi/lib/thumb/v7e-m+fp/hard/libc_nano.a(lib_a-makebuf.o)
 .bss           0x0000000000000000        0x0 /home/lubuntu/Documents/ARMToolchain/gcc-arm-none-eabi-10.3-2021.10/bin/../lib/gcc/arm-none-eabi/10.3.1/../../../../arm-none-eabi/lib/thumb/v7e-m+fp/hard/libc_nano.a(lib_a-makebuf.o)
 .data          0x0000000000000000        0x0 /home/lubuntu/Documents/ARMToolchain/gcc-arm-none-eabi-10.3-2021.10/bin/../lib/gcc/arm-none-eabi/10.3.1/../../../../arm-none-eabi/lib/thumb/v7e-m+fp/hard/libc_nano.a(lib_a-memchr.o)
 .bss           0x0000000000000000        0x0 /home/lubuntu/Documents/ARMToolchain/gcc-arm-none-eabi-10.3-2021.10/bin/../lib/gcc/arm-none-eabi/10.3.1/../../../../arm-none-eabi/lib/thumb/v7e-m+fp/hard/libc_nano.a(lib_a-memchr.o)
 .text          0x0000000000000000        0x0 /home/lubuntu/Documents/ARMToolchain/gcc-arm-none-eabi-10.3-2021.10/bin/../lib/gcc/arm-none-eabi/10.3.1/../../../../arm-none-eabi/lib/thumb/v7e-m+fp/hard/libc_nano.a(lib_a-memcpy-stub.o)
 .data          0x0000000000000000        0x0 /home/lubuntu/Documents/ARMToolchain/gcc-arm-none-eabi-10.3-2021.10/bin/../lib/gcc/arm-none-eabi/10.3.1/../../../../arm-none-eabi/lib/thumb/v7e-m+fp/hard/libc_nano.a(lib_a-memcpy-stub.o)
 .bss           0x0000000000000000        0x0 /home/lubuntu/Documents/ARMToolchain/gcc-arm-none-eabi-10.3-2021.10/bin/../lib/gcc/arm-none-eabi/10.3.1/../../../../arm-none-eabi/lib/thumb/v7e-m+fp/hard/libc_nano.a(lib_a-memcpy-stub.o)
 .text.memcpy   0x0000000000000000       0x1c /home/lubuntu/Documents/ARMToolchain/gcc-arm-none-eabi-10.3-2021.10/bin/../lib/gcc/arm-none-eabi/10.3.1/../../../../arm-none-eabi/lib/thumb/v7e-m+fp/hard/libc_nano.a(lib_a-memcpy-stub.o)
 .debug_frame   0x0000000000000000       0x28 /home/lubuntu/Documents/ARMToolchain/gcc-arm-none-eabi-10.3-2021.10/bin/../lib/gcc/arm-none-eabi/10.3.1/../../../../arm-none-eabi/lib/thumb/v7e-m+fp/hard/libc_nano.a(lib_a-memcpy-stub.o)
 .ARM.attributes
                0x0000000000000000       0x34 /home/lubuntu/Documents/ARMToolchain/gcc-arm-none-eabi-10.3-2021.10/bin/../lib/gcc/arm-none-eabi/10.3.1/../../../../arm-none-eabi/lib/thumb/v7e-m+fp/hard/libc_nano.a(lib_a-memcpy-stub.o)
 .text          0x0000000000000000        0x0 /home/lubuntu/Documents/ARMToolchain/gcc-arm-none-eabi-10.3-2021.10/bin/../lib/gcc/arm-none-eabi/10.3.1/../../../../arm-none-eabi/lib/thumb/v7e-m+fp/hard/libc_nano.a(lib_a-memmove.o)
 .data          0x0000000000000000        0x0 /home/lubuntu/Documents/ARMToolchain/gcc-arm-none-eabi-10.3-2021.10/bin/../lib/gcc/arm-none-eabi/10.3.1/../../../../arm-none-eabi/lib/thumb/v7e-m+fp/hard/libc_nano.a(lib_a-memmove.o)
 .bss           0x0000000000000000        0x0 /home/lubuntu/Documents/ARMToolchain/gcc-arm-none-eabi-10.3-2021.10/bin/../lib/gcc/arm-none-eabi/10.3.1/../../../../arm-none-eabi/lib/thumb/v7e-m+fp/hard/libc_nano.a(lib_a-memmove.o)
 .text.memmove  0x0000000000000000       0x34 /home/lubuntu/Documents/ARMToolchain/gcc-arm-none-eabi-10.3-2021.10/bin/../lib/gcc/arm-none-eabi/10.3.1/../../../../arm-none-eabi/lib/thumb/v7e-m+fp/hard/libc_nano.a(lib_a-memmove.o)
 .debug_frame   0x0000000000000000       0x28 /home/lubuntu/Documents/ARMToolchain/gcc-arm-none-eabi-10.3-2021.10/bin/../lib/gcc/arm-none-eabi/10.3.1/../../../../arm-none-eabi/lib/thumb/v7e-m+fp/hard/libc_nano.a(lib_a-memmove.o)
 .ARM.attributes
                0x0000000000000000       0x34 /home/lubuntu/Documents/ARMToolchain/gcc-arm-none-eabi-10.3-2021.10/bin/../lib/gcc/arm-none-eabi/10.3.1/../../../../arm-none-eabi/lib/thumb/v7e-m+fp/hard/libc_nano.a(lib_a-memmove.o)
 .text          0x0000000000000000        0x0 /home/lubuntu/Documents/ARMToolchain/gcc-arm-none-eabi-10.3-2021.10/bin/../lib/gcc/arm-none-eabi/10.3.1/../../../../arm-none-eabi/lib/thumb/v7e-m+fp/hard/libc_nano.a(lib_a-memset.o)
 .data          0x0000000000000000        0x0 /home/lubuntu/Documents/ARMToolchain/gcc-arm-none-eabi-10.3-2021.10/bin/../lib/gcc/arm-none-eabi/10.3.1/../../../../arm-none-eabi/lib/thumb/v7e-m+fp/hard/libc_nano.a(lib_a-memset.o)
 .bss           0x0000000000000000        0x0 /home/lubuntu/Documents/ARMToolchain/gcc-arm-none-eabi-10.3-2021.10/bin/../lib/gcc/arm-none-eabi/10.3.1/../../../../arm-none-eabi/lib/thumb/v7e-m+fp/hard/libc_nano.a(lib_a-memset.o)
 .text          0x0000000000000000        0x0 /home/lubuntu/Documents/ARMToolchain/gcc-arm-none-eabi-10.3-2021.10/bin/../lib/gcc/arm-none-eabi/10.3.1/../../../../arm-none-eabi/lib/thumb/v7e-m+fp/hard/libc_nano.a(lib_a-nano-freer.o)
 .data          0x0000000000000000        0x0 /home/lubuntu/Documents/ARMToolchain/gcc-arm-none-eabi-10.3-2021.10/bin/../lib/gcc/arm-none-eabi/10.3.1/../../../../arm-none-eabi/lib/thumb/v7e-m+fp/hard/libc_nano.a(lib_a-nano-freer.o)
 .bss           0x0000000000000000        0x0 /home/lubuntu/Documents/ARMToolchain/gcc-arm-none-eabi-10.3-2021.10/bin/../lib/gcc/arm-none-eabi/10.3.1/../../../../arm-none-eabi/lib/thumb/v7e-m+fp/hard/libc_nano.a(lib_a-nano-freer.o)
 .text          0x0000000000000000        0x0 /home/lubuntu/Documents/ARMToolchain/gcc-arm-none-eabi-10.3-2021.10/bin/../lib/gcc/arm-none-eabi/10.3.1/../../../../arm-none-eabi/lib/thumb/v7e-m+fp/hard/libc_nano.a(lib_a-nano-mallocr.o)
 .data          0x0000000000000000        0x0 /home/lubuntu/Documents/ARMToolchain/gcc-arm-none-eabi-10.3-2021.10/bin/../lib/gcc/arm-none-eabi/10.3.1/../../../../arm-none-eabi/lib/thumb/v7e-m+fp/hard/libc_nano.a(lib_a-nano-mallocr.o)
 .bss           0x0000000000000000        0x0 /home/lubuntu/Documents/ARMToolchain/gcc-arm-none-eabi-10.3-2021.10/bin/../lib/gcc/arm-none-eabi/10.3.1/../../../../arm-none-eabi/lib/thumb/v7e-m+fp/hard/libc_nano.a(lib_a-nano-mallocr.o)
 .text          0x0000000000000000        0x0 /home/lubuntu/Documents/ARMToolchain/gcc-arm-none-eabi-10.3-2021.10/bin/../lib/gcc/arm-none-eabi/10.3.1/../../../../arm-none-eabi/lib/thumb/v7e-m+fp/hard/libc_nano.a(lib_a-nano-reallocr.o)
 .data          0x0000000000000000        0x0 /home/lubuntu/Documents/ARMToolchain/gcc-arm-none-eabi-10.3-2021.10/bin/../lib/gcc/arm-none-eabi/10.3.1/../../../../arm-none-eabi/lib/thumb/v7e-m+fp/hard/libc_nano.a(lib_a-nano-reallocr.o)
 .bss           0x0000000000000000        0x0 /home/lubuntu/Documents/ARMToolchain/gcc-arm-none-eabi-10.3-2021.10/bin/../lib/gcc/arm-none-eabi/10.3.1/../../../../arm-none-eabi/lib/thumb/v7e-m+fp/hard/libc_nano.a(lib_a-nano-reallocr.o)
 .text._realloc_r
                0x0000000000000000       0x5e /home/lubuntu/Documents/ARMToolchain/gcc-arm-none-eabi-10.3-2021.10/bin/../lib/gcc/arm-none-eabi/10.3.1/../../../../arm-none-eabi/lib/thumb/v7e-m+fp/hard/libc_nano.a(lib_a-nano-reallocr.o)
 .debug_frame   0x0000000000000000       0x3c /home/lubuntu/Documents/ARMToolchain/gcc-arm-none-eabi-10.3-2021.10/bin/../lib/gcc/arm-none-eabi/10.3.1/../../../../arm-none-eabi/lib/thumb/v7e-m+fp/hard/libc_nano.a(lib_a-nano-reallocr.o)
 .ARM.attributes
                0x0000000000000000       0x34 /home/lubuntu/Documents/ARMToolchain/gcc-arm-none-eabi-10.3-2021.10/bin/../lib/gcc/arm-none-eabi/10.3.1/../../../../arm-none-eabi/lib/thumb/v7e-m+fp/hard/libc_nano.a(lib_a-nano-reallocr.o)
 .text          0x0000000000000000        0x0 /home/lubuntu/Documents/ARMToolchain/gcc-arm-none-eabi-10.3-2021.10/bin/../lib/gcc/arm-none-eabi/10.3.1/../../../../arm-none-eabi/lib/thumb/v7e-m+fp/hard/libc_nano.a(lib_a-sbrkr.o)
 .data          0x0000000000000000        0x0 /home/lubuntu/Documents/ARMToolchain/gcc-arm-none-eabi-10.3-2021.10/bin/../lib/gcc/arm-none-eabi/10.3.1/../../../../arm-none-eabi/lib/thumb/v7e-m+fp/hard/libc_nano.a(lib_a-sbrkr.o)
 .bss           0x0000000000000000        0x0 /home/lubuntu/Documents/ARMToolchain/gcc-arm-none-eabi-10.3-2021.10/bin/../lib/gcc/arm-none-eabi/10.3.1/../../../../arm-none-eabi/lib/thumb/v7e-m+fp/hard/libc_nano.a(lib_a-sbrkr.o)
 .text          0x0000000000000000        0x0 /home/lubuntu/Documents/ARMToolchain/gcc-arm-none-eabi-10.3-2021.10/bin/../lib/gcc/arm-none-eabi/10.3.1/../../../../arm-none-eabi/lib/thumb/v7e-m+fp/hard/libc_nano.a(lib_a-signal.o)
 .data          0x0000000000000000        0x0 /home/lubuntu/Documents/ARMToolchain/gcc-arm-none-eabi-10.3-2021.10/bin/../lib/gcc/arm-none-eabi/10.3.1/../../../../arm-none-eabi/lib/thumb/v7e-m+fp/hard/libc_nano.a(lib_a-signal.o)
 .bss           0x0000000000000000        0x0 /home/lubuntu/Documents/ARMToolchain/gcc-arm-none-eabi-10.3-2021.10/bin/../lib/gcc/arm-none-eabi/10.3.1/../../../../arm-none-eabi/lib/thumb/v7e-m+fp/hard/libc_nano.a(lib_a-signal.o)
 .text._init_signal_r
                0x0000000000000000       0x28 /home/lubuntu/Documents/ARMToolchain/gcc-arm-none-eabi-10.3-2021.10/bin/../lib/gcc/arm-none-eabi/10.3.1/../../../../arm-none-eabi/lib/thumb/v7e-m+fp/hard/libc_nano.a(lib_a-signal.o)
 .text._signal_r
                0x0000000000000000       0x30 /home/lubuntu/Documents/ARMToolchain/gcc-arm-none-eabi-10.3-2021.10/bin/../lib/gcc/arm-none-eabi/10.3.1/../../../../arm-none-eabi/lib/thumb/v7e-m+fp/hard/libc_nano.a(lib_a-signal.o)
 .text.__sigtramp_r
                0x0000000000000000       0x48 /home/lubuntu/Documents/ARMToolchain/gcc-arm-none-eabi-10.3-2021.10/bin/../lib/gcc/arm-none-eabi/10.3.1/../../../../arm-none-eabi/lib/thumb/v7e-m+fp/hard/libc_nano.a(lib_a-signal.o)
 .text.signal   0x0000000000000000       0x10 /home/lubuntu/Documents/ARMToolchain/gcc-arm-none-eabi-10.3-2021.10/bin/../lib/gcc/arm-none-eabi/10.3.1/../../../../arm-none-eabi/lib/thumb/v7e-m+fp/hard/libc_nano.a(lib_a-signal.o)
 .text._init_signal
                0x0000000000000000        0xc /home/lubuntu/Documents/ARMToolchain/gcc-arm-none-eabi-10.3-2021.10/bin/../lib/gcc/arm-none-eabi/10.3.1/../../../../arm-none-eabi/lib/thumb/v7e-m+fp/hard/libc_nano.a(lib_a-signal.o)
 .text.__sigtramp
                0x0000000000000000       0x10 /home/lubuntu/Documents/ARMToolchain/gcc-arm-none-eabi-10.3-2021.10/bin/../lib/gcc/arm-none-eabi/10.3.1/../../../../arm-none-eabi/lib/thumb/v7e-m+fp/hard/libc_nano.a(lib_a-signal.o)
 .text          0x0000000000000000        0x0 /home/lubuntu/Documents/ARMToolchain/gcc-arm-none-eabi-10.3-2021.10/bin/../lib/gcc/arm-none-eabi/10.3.1/../../../../arm-none-eabi/lib/thumb/v7e-m+fp/hard/libc_nano.a(lib_a-signalr.o)
 .data          0x0000000000000000        0x0 /home/lubuntu/Documents/ARMToolchain/gcc-arm-none-eabi-10.3-2021.10/bin/../lib/gcc/arm-none-eabi/10.3.1/../../../../arm-none-eabi/lib/thumb/v7e-m+fp/hard/libc_nano.a(lib_a-signalr.o)
 .bss           0x0000000000000000        0x0 /home/lubuntu/Documents/ARMToolchain/gcc-arm-none-eabi-10.3-2021.10/bin/../lib/gcc/arm-none-eabi/10.3.1/../../../../arm-none-eabi/lib/thumb/v7e-m+fp/hard/libc_nano.a(lib_a-signalr.o)
 .text          0x0000000000000000        0x0 /home/lubuntu/Documents/ARMToolchain/gcc-arm-none-eabi-10.3-2021.10/bin/../lib/gcc/arm-none-eabi/10.3.1/../../../../arm-none-eabi/lib/thumb/v7e-m+fp/hard/libc_nano.a(lib_a-stdio.o)
 .data          0x0000000000000000        0x0 /home/lubuntu/Documents/ARMToolchain/gcc-arm-none-eabi-10.3-2021.10/bin/../lib/gcc/arm-none-eabi/10.3.1/../../../../arm-none-eabi/lib/thumb/v7e-m+fp/hard/libc_nano.a(lib_a-stdio.o)
 .bss           0x0000000000000000        0x0 /home/lubuntu/Documents/ARMToolchain/gcc-arm-none-eabi-10.3-2021.10/bin/../lib/gcc/arm-none-eabi/10.3.1/../../../../arm-none-eabi/lib/thumb/v7e-m+fp/hard/libc_nano.a(lib_a-stdio.o)
 .text.__seofread
                0x0000000000000000        0x4 /home/lubuntu/Documents/ARMToolchain/gcc-arm-none-eabi-10.3-2021.10/bin/../lib/gcc/arm-none-eabi/10.3.1/../../../../arm-none-eabi/lib/thumb/v7e-m+fp/hard/libc_nano.a(lib_a-stdio.o)
 .text          0x0000000000000000        0x0 /home/lubuntu/Documents/ARMToolchain/gcc-arm-none-eabi-10.3-2021.10/bin/../lib/gcc/arm-none-eabi/10.3.1/../../../../arm-none-eabi/lib/thumb/v7e-m+fp/hard/libc_nano.a(lib_a-writer.o)
 .data          0x0000000000000000        0x0 /home/lubuntu/Documents/ARMToolchain/gcc-arm-none-eabi-10.3-2021.10/bin/../lib/gcc/arm-none-eabi/10.3.1/../../../../arm-none-eabi/lib/thumb/v7e-m+fp/hard/libc_nano.a(lib_a-writer.o)
 .bss           0x0000000000000000        0x0 /home/lubuntu/Documents/ARMToolchain/gcc-arm-none-eabi-10.3-2021.10/bin/../lib/gcc/arm-none-eabi/10.3.1/../../../../arm-none-eabi/lib/thumb/v7e-m+fp/hard/libc_nano.a(lib_a-writer.o)
 .text          0x0000000000000000        0x0 /home/lubuntu/Documents/ARMToolchain/gcc-arm-none-eabi-10.3-2021.10/bin/../lib/gcc/arm-none-eabi/10.3.1/../../../../arm-none-eabi/lib/thumb/v7e-m+fp/hard/libc_nano.a(lib_a-closer.o)
 .data          0x0000000000000000        0x0 /home/lubuntu/Documents/ARMToolchain/gcc-arm-none-eabi-10.3-2021.10/bin/../lib/gcc/arm-none-eabi/10.3.1/../../../../arm-none-eabi/lib/thumb/v7e-m+fp/hard/libc_nano.a(lib_a-closer.o)
 .bss           0x0000000000000000        0x0 /home/lubuntu/Documents/ARMToolchain/gcc-arm-none-eabi-10.3-2021.10/bin/../lib/gcc/arm-none-eabi/10.3.1/../../../../arm-none-eabi/lib/thumb/v7e-m+fp/hard/libc_nano.a(lib_a-closer.o)
 .text          0x0000000000000000        0x0 /home/lubuntu/Documents/ARMToolchain/gcc-arm-none-eabi-10.3-2021.10/bin/../lib/gcc/arm-none-eabi/10.3.1/../../../../arm-none-eabi/lib/thumb/v7e-m+fp/hard/libc_nano.a(lib_a-fstatr.o)
 .data          0x0000000000000000        0x0 /home/lubuntu/Documents/ARMToolchain/gcc-arm-none-eabi-10.3-2021.10/bin/../lib/gcc/arm-none-eabi/10.3.1/../../../../arm-none-eabi/lib/thumb/v7e-m+fp/hard/libc_nano.a(lib_a-fstatr.o)
 .bss           0x0000000000000000        0x0 /home/lubuntu/Documents/ARMToolchain/gcc-arm-none-eabi-10.3-2021.10/bin/../lib/gcc/arm-none-eabi/10.3.1/../../../../arm-none-eabi/lib/thumb/v7e-m+fp/hard/libc_nano.a(lib_a-fstatr.o)
 .text          0x0000000000000000        0x0 /home/lubuntu/Documents/ARMToolchain/gcc-arm-none-eabi-10.3-2021.10/bin/../lib/gcc/arm-none-eabi/10.3.1/../../../../arm-none-eabi/lib/thumb/v7e-m+fp/hard/libc_nano.a(lib_a-isattyr.o)
 .data          0x0000000000000000        0x0 /home/lubuntu/Documents/ARMToolchain/gcc-arm-none-eabi-10.3-2021.10/bin/../lib/gcc/arm-none-eabi/10.3.1/../../../../arm-none-eabi/lib/thumb/v7e-m+fp/hard/libc_nano.a(lib_a-isattyr.o)
 .bss           0x0000000000000000        0x0 /home/lubuntu/Documents/ARMToolchain/gcc-arm-none-eabi-10.3-2021.10/bin/../lib/gcc/arm-none-eabi/10.3.1/../../../../arm-none-eabi/lib/thumb/v7e-m+fp/hard/libc_nano.a(lib_a-isattyr.o)
 .text          0x0000000000000000        0x0 /home/lubuntu/Documents/ARMToolchain/gcc-arm-none-eabi-10.3-2021.10/bin/../lib/gcc/arm-none-eabi/10.3.1/../../../../arm-none-eabi/lib/thumb/v7e-m+fp/hard/libc_nano.a(lib_a-lseekr.o)
 .data          0x0000000000000000        0x0 /home/lubuntu/Documents/ARMToolchain/gcc-arm-none-eabi-10.3-2021.10/bin/../lib/gcc/arm-none-eabi/10.3.1/../../../../arm-none-eabi/lib/thumb/v7e-m+fp/hard/libc_nano.a(lib_a-lseekr.o)
 .bss           0x0000000000000000        0x0 /home/lubuntu/Documents/ARMToolchain/gcc-arm-none-eabi-10.3-2021.10/bin/../lib/gcc/arm-none-eabi/10.3.1/../../../../arm-none-eabi/lib/thumb/v7e-m+fp/hard/libc_nano.a(lib_a-lseekr.o)
 .text          0x0000000000000000        0x0 /home/lubuntu/Documents/ARMToolchain/gcc-arm-none-eabi-10.3-2021.10/bin/../lib/gcc/arm-none-eabi/10.3.1/../../../../arm-none-eabi/lib/thumb/v7e-m+fp/hard/libc_nano.a(lib_a-mlock.o)
 .data          0x0000000000000000        0x0 /home/lubuntu/Documents/ARMToolchain/gcc-arm-none-eabi-10.3-2021.10/bin/../lib/gcc/arm-none-eabi/10.3.1/../../../../arm-none-eabi/lib/thumb/v7e-m+fp/hard/libc_nano.a(lib_a-mlock.o)
 .bss           0x0000000000000000        0x0 /home/lubuntu/Documents/ARMToolchain/gcc-arm-none-eabi-10.3-2021.10/bin/../lib/gcc/arm-none-eabi/10.3.1/../../../../arm-none-eabi/lib/thumb/v7e-m+fp/hard/libc_nano.a(lib_a-mlock.o)
 .text          0x0000000000000000        0x0 /home/lubuntu/Documents/ARMToolchain/gcc-arm-none-eabi-10.3-2021.10/bin/../lib/gcc/arm-none-eabi/10.3.1/../../../../arm-none-eabi/lib/thumb/v7e-m+fp/hard/libc_nano.a(lib_a-nano-msizer.o)
 .data          0x0000000000000000        0x0 /home/lubuntu/Documents/ARMToolchain/gcc-arm-none-eabi-10.3-2021.10/bin/../lib/gcc/arm-none-eabi/10.3.1/../../../../arm-none-eabi/lib/thumb/v7e-m+fp/hard/libc_nano.a(lib_a-nano-msizer.o)
 .bss           0x0000000000000000        0x0 /home/lubuntu/Documents/ARMToolchain/gcc-arm-none-eabi-10.3-2021.10/bin/../lib/gcc/arm-none-eabi/10.3.1/../../../../arm-none-eabi/lib/thumb/v7e-m+fp/hard/libc_nano.a(lib_a-nano-msizer.o)
 .text._malloc_usable_size_r
                0x0000000000000000       0x10 /home/lubuntu/Documents/ARMToolchain/gcc-arm-none-eabi-10.3-2021.10/bin/../lib/gcc/arm-none-eabi/10.3.1/../../../../arm-none-eabi/lib/thumb/v7e-m+fp/hard/libc_nano.a(lib_a-nano-msizer.o)
 .debug_frame   0x0000000000000000       0x20 /home/lubuntu/Documents/ARMToolchain/gcc-arm-none-eabi-10.3-2021.10/bin/../lib/gcc/arm-none-eabi/10.3.1/../../../../arm-none-eabi/lib/thumb/v7e-m+fp/hard/libc_nano.a(lib_a-nano-msizer.o)
 .ARM.attributes
                0x0000000000000000       0x34 /home/lubuntu/Documents/ARMToolchain/gcc-arm-none-eabi-10.3-2021.10/bin/../lib/gcc/arm-none-eabi/10.3.1/../../../../arm-none-eabi/lib/thumb/v7e-m+fp/hard/libc_nano.a(lib_a-nano-msizer.o)
 .text          0x0000000000000000        0x0 /home/lubuntu/Documents/ARMToolchain/gcc-arm-none-eabi-10.3-2021.10/bin/../lib/gcc/arm-none-eabi/10.3.1/../../../../arm-none-eabi/lib/thumb/v7e-m+fp/hard/libc_nano.a(lib_a-readr.o)
 .data          0x0000000000000000        0x0 /home/lubuntu/Documents/ARMToolchain/gcc-arm-none-eabi-10.3-2021.10/bin/../lib/gcc/arm-none-eabi/10.3.1/../../../../arm-none-eabi/lib/thumb/v7e-m+fp/hard/libc_nano.a(lib_a-readr.o)
 .bss           0x0000000000000000        0x0 /home/lubuntu/Documents/ARMToolchain/gcc-arm-none-eabi-10.3-2021.10/bin/../lib/gcc/arm-none-eabi/10.3.1/../../../../arm-none-eabi/lib/thumb/v7e-m+fp/hard/libc_nano.a(lib_a-readr.o)
 .text          0x0000000000000000        0x0 /home/lubuntu/Documents/ARMToolchain/gcc-arm-none-eabi-10.3-2021.10/bin/../lib/gcc/arm-none-eabi/10.3.1/../../../../arm-none-eabi/lib/thumb/v7e-m+fp/hard/libc_nano.a(lib_a-reent.o)
 .data          0x0000000000000000        0x0 /home/lubuntu/Documents/ARMToolchain/gcc-arm-none-eabi-10.3-2021.10/bin/../lib/gcc/arm-none-eabi/10.3.1/../../../../arm-none-eabi/lib/thumb/v7e-m+fp/hard/libc_nano.a(lib_a-reent.o)
 .bss           0x0000000000000000        0x0 /home/lubuntu/Documents/ARMToolchain/gcc-arm-none-eabi-10.3-2021.10/bin/../lib/gcc/arm-none-eabi/10.3.1/../../../../arm-none-eabi/lib/thumb/v7e-m+fp/hard/libc_nano.a(lib_a-reent.o)
 .text.cleanup_glue
                0x0000000000000000       0x1a /home/lubuntu/Documents/ARMToolchain/gcc-arm-none-eabi-10.3-2021.10/bin/../lib/gcc/arm-none-eabi/10.3.1/../../../../arm-none-eabi/lib/thumb/v7e-m+fp/hard/libc_nano.a(lib_a-reent.o)
 .text._reclaim_reent
                0x0000000000000000       0xb8 /home/lubuntu/Documents/ARMToolchain/gcc-arm-none-eabi-10.3-2021.10/bin/../lib/gcc/arm-none-eabi/10.3.1/../../../../arm-none-eabi/lib/thumb/v7e-m+fp/hard/libc_nano.a(lib_a-reent.o)
 .text          0x0000000000000000        0x0 /home/lubuntu/Documents/ARMToolchain/gcc-arm-none-eabi-10.3-2021.10/bin/../lib/gcc/arm-none-eabi/10.3.1/../../../../arm-none-eabi/lib/thumb/v7e-m+fp/hard/libnosys.a(close.o)
 .data          0x0000000000000000        0x0 /home/lubuntu/Documents/ARMToolchain/gcc-arm-none-eabi-10.3-2021.10/bin/../lib/gcc/arm-none-eabi/10.3.1/../../../../arm-none-eabi/lib/thumb/v7e-m+fp/hard/libnosys.a(close.o)
 .bss           0x0000000000000000        0x0 /home/lubuntu/Documents/ARMToolchain/gcc-arm-none-eabi-10.3-2021.10/bin/../lib/gcc/arm-none-eabi/10.3.1/../../../../arm-none-eabi/lib/thumb/v7e-m+fp/hard/libnosys.a(close.o)
 .text          0x0000000000000000        0x0 /home/lubuntu/Documents/ARMToolchain/gcc-arm-none-eabi-10.3-2021.10/bin/../lib/gcc/arm-none-eabi/10.3.1/../../../../arm-none-eabi/lib/thumb/v7e-m+fp/hard/libnosys.a(fstat.o)
 .data          0x0000000000000000        0x0 /home/lubuntu/Documents/ARMToolchain/gcc-arm-none-eabi-10.3-2021.10/bin/../lib/gcc/arm-none-eabi/10.3.1/../../../../arm-none-eabi/lib/thumb/v7e-m+fp/hard/libnosys.a(fstat.o)
 .bss           0x0000000000000000        0x0 /home/lubuntu/Documents/ARMToolchain/gcc-arm-none-eabi-10.3-2021.10/bin/../lib/gcc/arm-none-eabi/10.3.1/../../../../arm-none-eabi/lib/thumb/v7e-m+fp/hard/libnosys.a(fstat.o)
 .text          0x0000000000000000        0x0 /home/lubuntu/Documents/ARMToolchain/gcc-arm-none-eabi-10.3-2021.10/bin/../lib/gcc/arm-none-eabi/10.3.1/../../../../arm-none-eabi/lib/thumb/v7e-m+fp/hard/libnosys.a(getpid.o)
 .data          0x0000000000000000        0x0 /home/lubuntu/Documents/ARMToolchain/gcc-arm-none-eabi-10.3-2021.10/bin/../lib/gcc/arm-none-eabi/10.3.1/../../../../arm-none-eabi/lib/thumb/v7e-m+fp/hard/libnosys.a(getpid.o)
 .bss           0x0000000000000000        0x0 /home/lubuntu/Documents/ARMToolchain/gcc-arm-none-eabi-10.3-2021.10/bin/../lib/gcc/arm-none-eabi/10.3.1/../../../../arm-none-eabi/lib/thumb/v7e-m+fp/hard/libnosys.a(getpid.o)
 .text          0x0000000000000000        0x0 /home/lubuntu/Documents/ARMToolchain/gcc-arm-none-eabi-10.3-2021.10/bin/../lib/gcc/arm-none-eabi/10.3.1/../../../../arm-none-eabi/lib/thumb/v7e-m+fp/hard/libnosys.a(isatty.o)
 .data          0x0000000000000000        0x0 /home/lubuntu/Documents/ARMToolchain/gcc-arm-none-eabi-10.3-2021.10/bin/../lib/gcc/arm-none-eabi/10.3.1/../../../../arm-none-eabi/lib/thumb/v7e-m+fp/hard/libnosys.a(isatty.o)
 .bss           0x0000000000000000        0x0 /home/lubuntu/Documents/ARMToolchain/gcc-arm-none-eabi-10.3-2021.10/bin/../lib/gcc/arm-none-eabi/10.3.1/../../../../arm-none-eabi/lib/thumb/v7e-m+fp/hard/libnosys.a(isatty.o)
 .text          0x0000000000000000        0x0 /home/lubuntu/Documents/ARMToolchain/gcc-arm-none-eabi-10.3-2021.10/bin/../lib/gcc/arm-none-eabi/10.3.1/../../../../arm-none-eabi/lib/thumb/v7e-m+fp/hard/libnosys.a(kill.o)
 .data          0x0000000000000000        0x0 /home/lubuntu/Documents/ARMToolchain/gcc-arm-none-eabi-10.3-2021.10/bin/../lib/gcc/arm-none-eabi/10.3.1/../../../../arm-none-eabi/lib/thumb/v7e-m+fp/hard/libnosys.a(kill.o)
 .bss           0x0000000000000000        0x0 /home/lubuntu/Documents/ARMToolchain/gcc-arm-none-eabi-10.3-2021.10/bin/../lib/gcc/arm-none-eabi/10.3.1/../../../../arm-none-eabi/lib/thumb/v7e-m+fp/hard/libnosys.a(kill.o)
 .text          0x0000000000000000        0x0 /home/lubuntu/Documents/ARMToolchain/gcc-arm-none-eabi-10.3-2021.10/bin/../lib/gcc/arm-none-eabi/10.3.1/../../../../arm-none-eabi/lib/thumb/v7e-m+fp/hard/libnosys.a(lseek.o)
 .data          0x0000000000000000        0x0 /home/lubuntu/Documents/ARMToolchain/gcc-arm-none-eabi-10.3-2021.10/bin/../lib/gcc/arm-none-eabi/10.3.1/../../../../arm-none-eabi/lib/thumb/v7e-m+fp/hard/libnosys.a(lseek.o)
 .bss           0x0000000000000000        0x0 /home/lubuntu/Documents/ARMToolchain/gcc-arm-none-eabi-10.3-2021.10/bin/../lib/gcc/arm-none-eabi/10.3.1/../../../../arm-none-eabi/lib/thumb/v7e-m+fp/hard/libnosys.a(lseek.o)
 .text          0x0000000000000000        0x0 /home/lubuntu/Documents/ARMToolchain/gcc-arm-none-eabi-10.3-2021.10/bin/../lib/gcc/arm-none-eabi/10.3.1/../../../../arm-none-eabi/lib/thumb/v7e-m+fp/hard/libnosys.a(read.o)
 .data          0x0000000000000000        0x0 /home/lubuntu/Documents/ARMToolchain/gcc-arm-none-eabi-10.3-2021.10/bin/../lib/gcc/arm-none-eabi/10.3.1/../../../../arm-none-eabi/lib/thumb/v7e-m+fp/hard/libnosys.a(read.o)
 .bss           0x0000000000000000        0x0 /home/lubuntu/Documents/ARMToolchain/gcc-arm-none-eabi-10.3-2021.10/bin/../lib/gcc/arm-none-eabi/10.3.1/../../../../arm-none-eabi/lib/thumb/v7e-m+fp/hard/libnosys.a(read.o)
 .text          0x0000000000000000        0x0 /home/lubuntu/Documents/ARMToolchain/gcc-arm-none-eabi-10.3-2021.10/bin/../lib/gcc/arm-none-eabi/10.3.1/../../../../arm-none-eabi/lib/thumb/v7e-m+fp/hard/libnosys.a(sbrk.o)
 .data          0x0000000000000000        0x0 /home/lubuntu/Documents/ARMToolchain/gcc-arm-none-eabi-10.3-2021.10/bin/../lib/gcc/arm-none-eabi/10.3.1/../../../../arm-none-eabi/lib/thumb/v7e-m+fp/hard/libnosys.a(sbrk.o)
 .bss           0x0000000000000000        0x0 /home/lubuntu/Documents/ARMToolchain/gcc-arm-none-eabi-10.3-2021.10/bin/../lib/gcc/arm-none-eabi/10.3.1/../../../../arm-none-eabi/lib/thumb/v7e-m+fp/hard/libnosys.a(sbrk.o)
 .text          0x0000000000000000        0x0 /home/lubuntu/Documents/ARMToolchain/gcc-arm-none-eabi-10.3-2021.10/bin/../lib/gcc/arm-none-eabi/10.3.1/../../../../arm-none-eabi/lib/thumb/v7e-m+fp/hard/libnosys.a(_exit.o)
 .data          0x0000000000000000        0x0 /home/lubuntu/Documents/ARMToolchain/gcc-arm-none-eabi-10.3-2021.10/bin/../lib/gcc/arm-none-eabi/10.3.1/../../../../arm-none-eabi/lib/thumb/v7e-m+fp/hard/libnosys.a(_exit.o)
 .bss           0x0000000000000000        0x0 /home/lubuntu/Documents/ARMToolchain/gcc-arm-none-eabi-10.3-2021.10/bin/../lib/gcc/arm-none-eabi/10.3.1/../../../../arm-none-eabi/lib/thumb/v7e-m+fp/hard/libnosys.a(_exit.o)
 .group         0x0000000000000000        0xc /home/lubuntu/Documents/libOpenCM3/libopencm3/lib/libopencm3_stm32l4.a(gpio_common_all.o)
 .group         0x0000000000000000        0xc /home/lubuntu/Documents/libOpenCM3/libopencm3/lib/libopencm3_stm32l4.a(gpio_common_all.o)
 .group         0x0000000000000000        0xc /home/lubuntu/Documents/libOpenCM3/libopencm3/lib/libopencm3_stm32l4.a(gpio_common_all.o)
 .group         0x0000000000000000        0xc /home/lubuntu/Documents/libOpenCM3/libopencm3/lib/libopencm3_stm32l4.a(gpio_common_all.o)
 .group         0x0000000000000000        0xc /home/lubuntu/Documents/libOpenCM3/libopencm3/lib/libopencm3_stm32l4.a(gpio_common_all.o)
 .group         0x0000000000000000        0xc /home/lubuntu/Documents/libOpenCM3/libopencm3/lib/libopencm3_stm32l4.a(gpio_common_all.o)
 .group         0x0000000000000000        0xc /home/lubuntu/Documents/libOpenCM3/libopencm3/lib/libopencm3_stm32l4.a(gpio_common_all.o)
 .group         0x0000000000000000        0xc /home/lubuntu/Documents/libOpenCM3/libopencm3/lib/libopencm3_stm32l4.a(gpio_common_all.o)
 .group         0x0000000000000000        0xc /home/lubuntu/Documents/libOpenCM3/libopencm3/lib/libopencm3_stm32l4.a(gpio_common_all.o)
 .group         0x0000000000000000        0xc /home/lubuntu/Documents/libOpenCM3/libopencm3/lib/libopencm3_stm32l4.a(gpio_common_all.o)
 .group         0x0000000000000000        0xc /home/lubuntu/Documents/libOpenCM3/libopencm3/lib/libopencm3_stm32l4.a(gpio_common_all.o)
 .group         0x0000000000000000        0xc /home/lubuntu/Documents/libOpenCM3/libopencm3/lib/libopencm3_stm32l4.a(gpio_common_all.o)
 .group         0x0000000000000000        0xc /home/lubuntu/Documents/libOpenCM3/libopencm3/lib/libopencm3_stm32l4.a(gpio_common_all.o)
 .group         0x0000000000000000        0xc /home/lubuntu/Documents/libOpenCM3/libopencm3/lib/libopencm3_stm32l4.a(gpio_common_all.o)
 .group         0x0000000000000000        0xc /home/lubuntu/Documents/libOpenCM3/libopencm3/lib/libopencm3_stm32l4.a(gpio_common_all.o)
 .group         0x0000000000000000        0xc /home/lubuntu/Documents/libOpenCM3/libopencm3/lib/libopencm3_stm32l4.a(gpio_common_all.o)
 .text          0x0000000000000000        0x0 /home/lubuntu/Documents/libOpenCM3/libopencm3/lib/libopencm3_stm32l4.a(gpio_common_all.o)
 .data          0x0000000000000000        0x0 /home/lubuntu/Documents/libOpenCM3/libopencm3/lib/libopencm3_stm32l4.a(gpio_common_all.o)
 .bss           0x0000000000000000        0x0 /home/lubuntu/Documents/libOpenCM3/libopencm3/lib/libopencm3_stm32l4.a(gpio_common_all.o)
 .text.gpio_set
                0x0000000000000000        0x4 /home/lubuntu/Documents/libOpenCM3/libopencm3/lib/libopencm3_stm32l4.a(gpio_common_all.o)
 .text.gpio_port_read
                0x0000000000000000        0x6 /home/lubuntu/Documents/libOpenCM3/libopencm3/lib/libopencm3_stm32l4.a(gpio_common_all.o)
 .text.gpio_port_write
                0x0000000000000000        0x4 /home/lubuntu/Documents/libOpenCM3/libopencm3/lib/libopencm3_stm32l4.a(gpio_common_all.o)
 .text.gpio_port_config_lock
                0x0000000000000000       0x10 /home/lubuntu/Documents/libOpenCM3/libopencm3/lib/libopencm3_stm32l4.a(gpio_common_all.o)
 .group         0x0000000000000000        0xc /home/lubuntu/Documents/libOpenCM3/libopencm3/lib/libopencm3_stm32l4.a(gpio_common_f0234.o)
 .group         0x0000000000000000        0xc /home/lubuntu/Documents/libOpenCM3/libopencm3/lib/libopencm3_stm32l4.a(gpio_common_f0234.o)
 .group         0x0000000000000000        0xc /home/lubuntu/Documents/libOpenCM3/libopencm3/lib/libopencm3_stm32l4.a(gpio_common_f0234.o)
 .group         0x0000000000000000        0xc /home/lubuntu/Documents/libOpenCM3/libopencm3/lib/libopencm3_stm32l4.a(gpio_common_f0234.o)
 .group         0x0000000000000000        0xc /home/lubuntu/Documents/libOpenCM3/libopencm3/lib/libopencm3_stm32l4.a(gpio_common_f0234.o)
 .group         0x0000000000000000        0xc /home/lubuntu/Documents/libOpenCM3/libopencm3/lib/libopencm3_stm32l4.a(gpio_common_f0234.o)
 .group         0x0000000000000000        0xc /home/lubuntu/Documents/libOpenCM3/libopencm3/lib/libopencm3_stm32l4.a(gpio_common_f0234.o)
 .group         0x0000000000000000        0xc /home/lubuntu/Documents/libOpenCM3/libopencm3/lib/libopencm3_stm32l4.a(gpio_common_f0234.o)
 .group         0x0000000000000000        0xc /home/lubuntu/Documents/libOpenCM3/libopencm3/lib/libopencm3_stm32l4.a(gpio_common_f0234.o)
 .group         0x0000000000000000        0xc /home/lubuntu/Documents/libOpenCM3/libopencm3/lib/libopencm3_stm32l4.a(gpio_common_f0234.o)
 .group         0x0000000000000000        0xc /home/lubuntu/Documents/libOpenCM3/libopencm3/lib/libopencm3_stm32l4.a(gpio_common_f0234.o)
 .group         0x0000000000000000        0xc /home/lubuntu/Documents/libOpenCM3/libopencm3/lib/libopencm3_stm32l4.a(gpio_common_f0234.o)
 .group         0x0000000000000000        0xc /home/lubuntu/Documents/libOpenCM3/libopencm3/lib/libopencm3_stm32l4.a(gpio_common_f0234.o)
 .group         0x0000000000000000        0xc /home/lubuntu/Documents/libOpenCM3/libopencm3/lib/libopencm3_stm32l4.a(gpio_common_f0234.o)
 .group         0x0000000000000000        0xc /home/lubuntu/Documents/libOpenCM3/libopencm3/lib/libopencm3_stm32l4.a(gpio_common_f0234.o)
 .group         0x0000000000000000        0xc /home/lubuntu/Documents/libOpenCM3/libopencm3/lib/libopencm3_stm32l4.a(gpio_common_f0234.o)
 .text          0x0000000000000000        0x0 /home/lubuntu/Documents/libOpenCM3/libopencm3/lib/libopencm3_stm32l4.a(gpio_common_f0234.o)
 .data          0x0000000000000000        0x0 /home/lubuntu/Documents/libOpenCM3/libopencm3/lib/libopencm3_stm32l4.a(gpio_common_f0234.o)
 .bss           0x0000000000000000        0x0 /home/lubuntu/Documents/libOpenCM3/libopencm3/lib/libopencm3_stm32l4.a(gpio_common_f0234.o)
 .text.gpio_set_output_options
                0x0000000000000000       0x36 /home/lubuntu/Documents/libOpenCM3/libopencm3/lib/libopencm3_stm32l4.a(gpio_common_f0234.o)
 .debug_macro   0x0000000000000000      0xa6c /home/lubuntu/Documents/libOpenCM3/libopencm3/lib/libopencm3_stm32l4.a(gpio_common_f0234.o)
 .debug_macro   0x0000000000000000       0x1c /home/lubuntu/Documents/libOpenCM3/libopencm3/lib/libopencm3_stm32l4.a(gpio_common_f0234.o)
 .debug_macro   0x0000000000000000       0x22 /home/lubuntu/Documents/libOpenCM3/libopencm3/lib/libopencm3_stm32l4.a(gpio_common_f0234.o)
 .debug_macro   0x0000000000000000       0x56 /home/lubuntu/Documents/libOpenCM3/libopencm3/lib/libopencm3_stm32l4.a(gpio_common_f0234.o)
 .debug_macro   0x0000000000000000       0x51 /home/lubuntu/Documents/libOpenCM3/libopencm3/lib/libopencm3_stm32l4.a(gpio_common_f0234.o)
 .debug_macro   0x0000000000000000      0x103 /home/lubuntu/Documents/libOpenCM3/libopencm3/lib/libopencm3_stm32l4.a(gpio_common_f0234.o)
 .debug_macro   0x0000000000000000       0x6a /home/lubuntu/Documents/libOpenCM3/libopencm3/lib/libopencm3_stm32l4.a(gpio_common_f0234.o)
 .debug_macro   0x0000000000000000      0x1df /home/lubuntu/Documents/libOpenCM3/libopencm3/lib/libopencm3_stm32l4.a(gpio_common_f0234.o)
 .debug_macro   0x0000000000000000       0x22 /home/lubuntu/Documents/libOpenCM3/libopencm3/lib/libopencm3_stm32l4.a(gpio_common_f0234.o)
 .debug_macro   0x0000000000000000       0xe8 /home/lubuntu/Documents/libOpenCM3/libopencm3/lib/libopencm3_stm32l4.a(gpio_common_f0234.o)
 .debug_macro   0x0000000000000000       0x76 /home/lubuntu/Documents/libOpenCM3/libopencm3/lib/libopencm3_stm32l4.a(gpio_common_f0234.o)
 .debug_macro   0x0000000000000000      0x217 /home/lubuntu/Documents/libOpenCM3/libopencm3/lib/libopencm3_stm32l4.a(gpio_common_f0234.o)
 .debug_macro   0x0000000000000000       0x76 /home/lubuntu/Documents/libOpenCM3/libopencm3/lib/libopencm3_stm32l4.a(gpio_common_f0234.o)
 .debug_macro   0x0000000000000000      0x37e /home/lubuntu/Documents/libOpenCM3/libopencm3/lib/libopencm3_stm32l4.a(gpio_common_f0234.o)
 .debug_macro   0x0000000000000000       0xca /home/lubuntu/Documents/libOpenCM3/libopencm3/lib/libopencm3_stm32l4.a(gpio_common_f0234.o)
 .debug_macro   0x0000000000000000       0x88 /home/lubuntu/Documents/libOpenCM3/libopencm3/lib/libopencm3_stm32l4.a(gpio_common_f0234.o)
 .group         0x0000000000000000        0xc /home/lubuntu/Documents/libOpenCM3/libopencm3/lib/libopencm3_stm32l4.a(rcc.o)
 .group         0x0000000000000000        0xc /home/lubuntu/Documents/libOpenCM3/libopencm3/lib/libopencm3_stm32l4.a(rcc.o)
 .group         0x0000000000000000        0xc /home/lubuntu/Documents/libOpenCM3/libopencm3/lib/libopencm3_stm32l4.a(rcc.o)
 .group         0x0000000000000000        0xc /home/lubuntu/Documents/libOpenCM3/libopencm3/lib/libopencm3_stm32l4.a(rcc.o)
 .group         0x0000000000000000        0xc /home/lubuntu/Documents/libOpenCM3/libopencm3/lib/libopencm3_stm32l4.a(rcc.o)
 .group         0x0000000000000000        0xc /home/lubuntu/Documents/libOpenCM3/libopencm3/lib/libopencm3_stm32l4.a(rcc.o)
 .group         0x0000000000000000        0xc /home/lubuntu/Documents/libOpenCM3/libopencm3/lib/libopencm3_stm32l4.a(rcc.o)
 .group         0x0000000000000000        0xc /home/lubuntu/Documents/libOpenCM3/libopencm3/lib/libopencm3_stm32l4.a(rcc.o)
 .group         0x0000000000000000        0xc /home/lubuntu/Documents/libOpenCM3/libopencm3/lib/libopencm3_stm32l4.a(rcc.o)
 .group         0x0000000000000000        0xc /home/lubuntu/Documents/libOpenCM3/libopencm3/lib/libopencm3_stm32l4.a(rcc.o)
 .group         0x0000000000000000        0xc /home/lubuntu/Documents/libOpenCM3/libopencm3/lib/libopencm3_stm32l4.a(rcc.o)
 .group         0x0000000000000000        0xc /home/lubuntu/Documents/libOpenCM3/libopencm3/lib/libopencm3_stm32l4.a(rcc.o)
 .group         0x0000000000000000        0xc /home/lubuntu/Documents/libOpenCM3/libopencm3/lib/libopencm3_stm32l4.a(rcc.o)
 .group         0x0000000000000000        0xc /home/lubuntu/Documents/libOpenCM3/libopencm3/lib/libopencm3_stm32l4.a(rcc.o)
 .text          0x0000000000000000        0x0 /home/lubuntu/Documents/libOpenCM3/libopencm3/lib/libopencm3_stm32l4.a(rcc.o)
 .data          0x0000000000000000        0x0 /home/lubuntu/Documents/libOpenCM3/libopencm3/lib/libopencm3_stm32l4.a(rcc.o)
 .bss           0x0000000000000000        0x0 /home/lubuntu/Documents/libOpenCM3/libopencm3/lib/libopencm3_stm32l4.a(rcc.o)
 .text.rcc_uart_i2c_clksel_freq_hz
                0x0000000000000000       0x44 /home/lubuntu/Documents/libOpenCM3/libopencm3/lib/libopencm3_stm32l4.a(rcc.o)
 .text.rcc_osc_ready_int_clear
                0x0000000000000000       0x5c /home/lubuntu/Documents/libOpenCM3/libopencm3/lib/libopencm3_stm32l4.a(rcc.o)
 .text.rcc_osc_ready_int_enable
                0x0000000000000000       0x5c /home/lubuntu/Documents/libOpenCM3/libopencm3/lib/libopencm3_stm32l4.a(rcc.o)
 .text.rcc_osc_ready_int_disable
                0x0000000000000000       0x5c /home/lubuntu/Documents/libOpenCM3/libopencm3/lib/libopencm3_stm32l4.a(rcc.o)
 .text.rcc_osc_ready_int_flag
                0x0000000000000000       0x60 /home/lubuntu/Documents/libOpenCM3/libopencm3/lib/libopencm3_stm32l4.a(rcc.o)
 .text.rcc_css_int_clear
                0x0000000000000000       0x10 /home/lubuntu/Documents/libOpenCM3/libopencm3/lib/libopencm3_stm32l4.a(rcc.o)
 .text.rcc_css_int_flag
                0x0000000000000000       0x10 /home/lubuntu/Documents/libOpenCM3/libopencm3/lib/libopencm3_stm32l4.a(rcc.o)
 .text.rcc_is_osc_ready
                0x0000000000000000       0x58 /home/lubuntu/Documents/libOpenCM3/libopencm3/lib/libopencm3_stm32l4.a(rcc.o)
 .text.rcc_wait_for_osc_ready
                0x0000000000000000       0x10 /home/lubuntu/Documents/libOpenCM3/libopencm3/lib/libopencm3_stm32l4.a(rcc.o)
 .text.rcc_wait_for_sysclk_status
                0x0000000000000000       0x48 /home/lubuntu/Documents/libOpenCM3/libopencm3/lib/libopencm3_stm32l4.a(rcc.o)
 .text.rcc_osc_off
                0x0000000000000000       0x70 /home/lubuntu/Documents/libOpenCM3/libopencm3/lib/libopencm3_stm32l4.a(rcc.o)
 .text.rcc_css_enable
                0x0000000000000000       0x10 /home/lubuntu/Documents/libOpenCM3/libopencm3/lib/libopencm3_stm32l4.a(rcc.o)
 .text.rcc_css_disable
                0x0000000000000000       0x10 /home/lubuntu/Documents/libOpenCM3/libopencm3/lib/libopencm3_stm32l4.a(rcc.o)
 .text.rcc_set_sysclk_source
                0x0000000000000000       0x14 /home/lubuntu/Documents/libOpenCM3/libopencm3/lib/libopencm3_stm32l4.a(rcc.o)
 .text.rcc_set_pll_source
                0x0000000000000000       0x14 /home/lubuntu/Documents/libOpenCM3/libopencm3/lib/libopencm3_stm32l4.a(rcc.o)
 .text.rcc_set_ppre2
                0x0000000000000000       0x14 /home/lubuntu/Documents/libOpenCM3/libopencm3/lib/libopencm3_stm32l4.a(rcc.o)
 .text.rcc_set_ppre1
                0x0000000000000000       0x14 /home/lubuntu/Documents/libOpenCM3/libopencm3/lib/libopencm3_stm32l4.a(rcc.o)
 .text.rcc_set_hpre
                0x0000000000000000       0x14 /home/lubuntu/Documents/libOpenCM3/libopencm3/lib/libopencm3_stm32l4.a(rcc.o)
 .text.rcc_system_clock_source
                0x0000000000000000       0x10 /home/lubuntu/Documents/libOpenCM3/libopencm3/lib/libopencm3_stm32l4.a(rcc.o)
 .text.rcc_set_msi_range
                0x0000000000000000       0x18 /home/lubuntu/Documents/libOpenCM3/libopencm3/lib/libopencm3_stm32l4.a(rcc.o)
 .text.rcc_set_msi_range_standby
                0x0000000000000000       0x18 /home/lubuntu/Documents/libOpenCM3/libopencm3/lib/libopencm3_stm32l4.a(rcc.o)
 .text.rcc_pll_output_enable
                0x0000000000000000       0x10 /home/lubuntu/Documents/libOpenCM3/libopencm3/lib/libopencm3_stm32l4.a(rcc.o)
 .text.rcc_set_clock48_source
                0x0000000000000000       0x20 /home/lubuntu/Documents/libOpenCM3/libopencm3/lib/libopencm3_stm32l4.a(rcc.o)
 .text.rcc_enable_rtc_clock
                0x0000000000000000       0x14 /home/lubuntu/Documents/libOpenCM3/libopencm3/lib/libopencm3_stm32l4.a(rcc.o)
 .text.rcc_disable_rtc_clock
                0x0000000000000000       0x14 /home/lubuntu/Documents/libOpenCM3/libopencm3/lib/libopencm3_stm32l4.a(rcc.o)
 .text.rcc_set_rtc_clock_source
                0x0000000000000000       0x40 /home/lubuntu/Documents/libOpenCM3/libopencm3/lib/libopencm3_stm32l4.a(rcc.o)
 .text.rcc_get_usart_clk_freq
                0x0000000000000000       0x5c /home/lubuntu/Documents/libOpenCM3/libopencm3/lib/libopencm3_stm32l4.a(rcc.o)
 .text.rcc_get_timer_clk_freq
                0x0000000000000000       0x34 /home/lubuntu/Documents/libOpenCM3/libopencm3/lib/libopencm3_stm32l4.a(rcc.o)
 .text.rcc_get_i2c_clk_freq
                0x0000000000000000       0x2c /home/lubuntu/Documents/libOpenCM3/libopencm3/lib/libopencm3_stm32l4.a(rcc.o)
 .text.rcc_get_spi_clk_freq
                0x0000000000000000       0x1c /home/lubuntu/Documents/libOpenCM3/libopencm3/lib/libopencm3_stm32l4.a(rcc.o)
 .data.rcc_ahb_frequency
                0x0000000000000000        0x4 /home/lubuntu/Documents/libOpenCM3/libopencm3/lib/libopencm3_stm32l4.a(rcc.o)
 .debug_macro   0x0000000000000000      0xa6c /home/lubuntu/Documents/libOpenCM3/libopencm3/lib/libopencm3_stm32l4.a(rcc.o)
 .debug_macro   0x0000000000000000       0x1c /home/lubuntu/Documents/libOpenCM3/libopencm3/lib/libopencm3_stm32l4.a(rcc.o)
 .debug_macro   0x0000000000000000       0x22 /home/lubuntu/Documents/libOpenCM3/libopencm3/lib/libopencm3_stm32l4.a(rcc.o)
 .debug_macro   0x0000000000000000       0x56 /home/lubuntu/Documents/libOpenCM3/libopencm3/lib/libopencm3_stm32l4.a(rcc.o)
 .debug_macro   0x0000000000000000       0x51 /home/lubuntu/Documents/libOpenCM3/libopencm3/lib/libopencm3_stm32l4.a(rcc.o)
 .debug_macro   0x0000000000000000      0x103 /home/lubuntu/Documents/libOpenCM3/libopencm3/lib/libopencm3_stm32l4.a(rcc.o)
 .debug_macro   0x0000000000000000       0x6a /home/lubuntu/Documents/libOpenCM3/libopencm3/lib/libopencm3_stm32l4.a(rcc.o)
 .debug_macro   0x0000000000000000      0x1df /home/lubuntu/Documents/libOpenCM3/libopencm3/lib/libopencm3_stm32l4.a(rcc.o)
 .debug_macro   0x0000000000000000       0x22 /home/lubuntu/Documents/libOpenCM3/libopencm3/lib/libopencm3_stm32l4.a(rcc.o)
 .debug_macro   0x0000000000000000       0xe8 /home/lubuntu/Documents/libOpenCM3/libopencm3/lib/libopencm3_stm32l4.a(rcc.o)
 .debug_macro   0x0000000000000000       0x76 /home/lubuntu/Documents/libOpenCM3/libopencm3/lib/libopencm3_stm32l4.a(rcc.o)
 .debug_macro   0x0000000000000000      0x217 /home/lubuntu/Documents/libOpenCM3/libopencm3/lib/libopencm3_stm32l4.a(rcc.o)
 .group         0x0000000000000000        0xc /home/lubuntu/Documents/libOpenCM3/libopencm3/lib/libopencm3_stm32l4.a(rcc_common_all.o)
 .group         0x0000000000000000        0xc /home/lubuntu/Documents/libOpenCM3/libopencm3/lib/libopencm3_stm32l4.a(rcc_common_all.o)
 .group         0x0000000000000000        0xc /home/lubuntu/Documents/libOpenCM3/libopencm3/lib/libopencm3_stm32l4.a(rcc_common_all.o)
 .group         0x0000000000000000        0xc /home/lubuntu/Documents/libOpenCM3/libopencm3/lib/libopencm3_stm32l4.a(rcc_common_all.o)
 .group         0x0000000000000000        0xc /home/lubuntu/Documents/libOpenCM3/libopencm3/lib/libopencm3_stm32l4.a(rcc_common_all.o)
 .group         0x0000000000000000        0xc /home/lubuntu/Documents/libOpenCM3/libopencm3/lib/libopencm3_stm32l4.a(rcc_common_all.o)
 .group         0x0000000000000000        0xc /home/lubuntu/Documents/libOpenCM3/libopencm3/lib/libopencm3_stm32l4.a(rcc_common_all.o)
 .group         0x0000000000000000        0xc /home/lubuntu/Documents/libOpenCM3/libopencm3/lib/libopencm3_stm32l4.a(rcc_common_all.o)
 .group         0x0000000000000000        0xc /home/lubuntu/Documents/libOpenCM3/libopencm3/lib/libopencm3_stm32l4.a(rcc_common_all.o)
 .group         0x0000000000000000        0xc /home/lubuntu/Documents/libOpenCM3/libopencm3/lib/libopencm3_stm32l4.a(rcc_common_all.o)
 .group         0x0000000000000000        0xc /home/lubuntu/Documents/libOpenCM3/libopencm3/lib/libopencm3_stm32l4.a(rcc_common_all.o)
 .group         0x0000000000000000        0xc /home/lubuntu/Documents/libOpenCM3/libopencm3/lib/libopencm3_stm32l4.a(rcc_common_all.o)
 .group         0x0000000000000000        0xc /home/lubuntu/Documents/libOpenCM3/libopencm3/lib/libopencm3_stm32l4.a(rcc_common_all.o)
 .text          0x0000000000000000        0x0 /home/lubuntu/Documents/libOpenCM3/libopencm3/lib/libopencm3_stm32l4.a(rcc_common_all.o)
 .data          0x0000000000000000        0x0 /home/lubuntu/Documents/libOpenCM3/libopencm3/lib/libopencm3_stm32l4.a(rcc_common_all.o)
 .bss           0x0000000000000000        0x0 /home/lubuntu/Documents/libOpenCM3/libopencm3/lib/libopencm3_stm32l4.a(rcc_common_all.o)
 .text.rcc_peripheral_enable_clock
                0x0000000000000000        0x8 /home/lubuntu/Documents/libOpenCM3/libopencm3/lib/libopencm3_stm32l4.a(rcc_common_all.o)
 .text.rcc_peripheral_disable_clock
                0x0000000000000000        0xa /home/lubuntu/Documents/libOpenCM3/libopencm3/lib/libopencm3_stm32l4.a(rcc_common_all.o)
 .text.rcc_peripheral_reset
                0x0000000000000000        0x8 /home/lubuntu/Documents/libOpenCM3/libopencm3/lib/libopencm3_stm32l4.a(rcc_common_all.o)
 .text.rcc_peripheral_clear_reset
                0x0000000000000000        0xa /home/lubuntu/Documents/libOpenCM3/libopencm3/lib/libopencm3_stm32l4.a(rcc_common_all.o)
 .text.rcc_periph_clock_disable
                0x0000000000000000       0x1e /home/lubuntu/Documents/libOpenCM3/libopencm3/lib/libopencm3_stm32l4.a(rcc_common_all.o)
 .text.rcc_periph_reset_hold
                0x0000000000000000        0x4 /home/lubuntu/Documents/libOpenCM3/libopencm3/lib/libopencm3_stm32l4.a(rcc_common_all.o)
 .text.rcc_periph_reset_release
                0x0000000000000000        0x4 /home/lubuntu/Documents/libOpenCM3/libopencm3/lib/libopencm3_stm32l4.a(rcc_common_all.o)
 .text.rcc_set_mco
                0x0000000000000000       0x14 /home/lubuntu/Documents/libOpenCM3/libopencm3/lib/libopencm3_stm32l4.a(rcc_common_all.o)
 .text.rcc_osc_bypass_enable
                0x0000000000000000       0x2c /home/lubuntu/Documents/libOpenCM3/libopencm3/lib/libopencm3_stm32l4.a(rcc_common_all.o)
 .text.rcc_osc_bypass_disable
                0x0000000000000000       0x2c /home/lubuntu/Documents/libOpenCM3/libopencm3/lib/libopencm3_stm32l4.a(rcc_common_all.o)
 .text.rcc_get_div_from_hpre
                0x0000000000000000       0x1c /home/lubuntu/Documents/libOpenCM3/libopencm3/lib/libopencm3_stm32l4.a(rcc_common_all.o)
 .debug_macro   0x0000000000000000      0xa6c /home/lubuntu/Documents/libOpenCM3/libopencm3/lib/libopencm3_stm32l4.a(rcc_common_all.o)
 .debug_macro   0x0000000000000000       0x1c /home/lubuntu/Documents/libOpenCM3/libopencm3/lib/libopencm3_stm32l4.a(rcc_common_all.o)
 .debug_macro   0x0000000000000000       0x22 /home/lubuntu/Documents/libOpenCM3/libopencm3/lib/libopencm3_stm32l4.a(rcc_common_all.o)
 .debug_macro   0x0000000000000000       0x56 /home/lubuntu/Documents/libOpenCM3/libopencm3/lib/libopencm3_stm32l4.a(rcc_common_all.o)
 .debug_macro   0x0000000000000000       0x51 /home/lubuntu/Documents/libOpenCM3/libopencm3/lib/libopencm3_stm32l4.a(rcc_common_all.o)
 .debug_macro   0x0000000000000000      0x103 /home/lubuntu/Documents/libOpenCM3/libopencm3/lib/libopencm3_stm32l4.a(rcc_common_all.o)
 .debug_macro   0x0000000000000000       0x6a /home/lubuntu/Documents/libOpenCM3/libopencm3/lib/libopencm3_stm32l4.a(rcc_common_all.o)
 .debug_macro   0x0000000000000000      0x1df /home/lubuntu/Documents/libOpenCM3/libopencm3/lib/libopencm3_stm32l4.a(rcc_common_all.o)
 .debug_macro   0x0000000000000000       0x22 /home/lubuntu/Documents/libOpenCM3/libopencm3/lib/libopencm3_stm32l4.a(rcc_common_all.o)
 .debug_macro   0x0000000000000000       0xe8 /home/lubuntu/Documents/libOpenCM3/libopencm3/lib/libopencm3_stm32l4.a(rcc_common_all.o)
 .debug_macro   0x0000000000000000       0x76 /home/lubuntu/Documents/libOpenCM3/libopencm3/lib/libopencm3_stm32l4.a(rcc_common_all.o)
 .debug_macro   0x0000000000000000      0x217 /home/lubuntu/Documents/libOpenCM3/libopencm3/lib/libopencm3_stm32l4.a(rcc_common_all.o)
 .debug_macro   0x0000000000000000      0xcfc /home/lubuntu/Documents/libOpenCM3/libopencm3/lib/libopencm3_stm32l4.a(rcc_common_all.o)
 .group         0x0000000000000000        0xc /home/lubuntu/Documents/libOpenCM3/libopencm3/lib/libopencm3_stm32l4.a(timer_common_all.o)
 .group         0x0000000000000000        0xc /home/lubuntu/Documents/libOpenCM3/libopencm3/lib/libopencm3_stm32l4.a(timer_common_all.o)
 .group         0x0000000000000000        0xc /home/lubuntu/Documents/libOpenCM3/libopencm3/lib/libopencm3_stm32l4.a(timer_common_all.o)
 .group         0x0000000000000000        0xc /home/lubuntu/Documents/libOpenCM3/libopencm3/lib/libopencm3_stm32l4.a(timer_common_all.o)
 .group         0x0000000000000000        0xc /home/lubuntu/Documents/libOpenCM3/libopencm3/lib/libopencm3_stm32l4.a(timer_common_all.o)
 .group         0x0000000000000000        0xc /home/lubuntu/Documents/libOpenCM3/libopencm3/lib/libopencm3_stm32l4.a(timer_common_all.o)
 .group         0x0000000000000000        0xc /home/lubuntu/Documents/libOpenCM3/libopencm3/lib/libopencm3_stm32l4.a(timer_common_all.o)
 .group         0x0000000000000000        0xc /home/lubuntu/Documents/libOpenCM3/libopencm3/lib/libopencm3_stm32l4.a(timer_common_all.o)
 .group         0x0000000000000000        0xc /home/lubuntu/Documents/libOpenCM3/libopencm3/lib/libopencm3_stm32l4.a(timer_common_all.o)
 .group         0x0000000000000000        0xc /home/lubuntu/Documents/libOpenCM3/libopencm3/lib/libopencm3_stm32l4.a(timer_common_all.o)
 .group         0x0000000000000000        0xc /home/lubuntu/Documents/libOpenCM3/libopencm3/lib/libopencm3_stm32l4.a(timer_common_all.o)
 .group         0x0000000000000000        0xc /home/lubuntu/Documents/libOpenCM3/libopencm3/lib/libopencm3_stm32l4.a(timer_common_all.o)
 .group         0x0000000000000000        0xc /home/lubuntu/Documents/libOpenCM3/libopencm3/lib/libopencm3_stm32l4.a(timer_common_all.o)
 .group         0x0000000000000000        0xc /home/lubuntu/Documents/libOpenCM3/libopencm3/lib/libopencm3_stm32l4.a(timer_common_all.o)
 .text          0x0000000000000000        0x0 /home/lubuntu/Documents/libOpenCM3/libopencm3/lib/libopencm3_stm32l4.a(timer_common_all.o)
 .data          0x0000000000000000        0x0 /home/lubuntu/Documents/libOpenCM3/libopencm3/lib/libopencm3_stm32l4.a(timer_common_all.o)
 .bss           0x0000000000000000        0x0 /home/lubuntu/Documents/libOpenCM3/libopencm3/lib/libopencm3_stm32l4.a(timer_common_all.o)
 .text.timer_disable_irq
                0x0000000000000000        0xa /home/lubuntu/Documents/libOpenCM3/libopencm3/lib/libopencm3_stm32l4.a(timer_common_all.o)
 .text.timer_interrupt_source
                0x0000000000000000       0x16 /home/lubuntu/Documents/libOpenCM3/libopencm3/lib/libopencm3_stm32l4.a(timer_common_all.o)
 .text.timer_set_mode
                0x0000000000000000       0x12 /home/lubuntu/Documents/libOpenCM3/libopencm3/lib/libopencm3_stm32l4.a(timer_common_all.o)
 .text.timer_set_clock_division
                0x0000000000000000       0x14 /home/lubuntu/Documents/libOpenCM3/libopencm3/lib/libopencm3_stm32l4.a(timer_common_all.o)
 .text.timer_enable_preload
                0x0000000000000000        0xa /home/lubuntu/Documents/libOpenCM3/libopencm3/lib/libopencm3_stm32l4.a(timer_common_all.o)
 .text.timer_disable_preload
                0x0000000000000000        0xa /home/lubuntu/Documents/libOpenCM3/libopencm3/lib/libopencm3_stm32l4.a(timer_common_all.o)
 .text.timer_set_alignment
                0x0000000000000000       0x14 /home/lubuntu/Documents/libOpenCM3/libopencm3/lib/libopencm3_stm32l4.a(timer_common_all.o)
 .text.timer_direction_up
                0x0000000000000000        0xa /home/lubuntu/Documents/libOpenCM3/libopencm3/lib/libopencm3_stm32l4.a(timer_common_all.o)
 .text.timer_direction_down
                0x0000000000000000        0xa /home/lubuntu/Documents/libOpenCM3/libopencm3/lib/libopencm3_stm32l4.a(timer_common_all.o)
 .text.timer_one_shot_mode
                0x0000000000000000        0xa /home/lubuntu/Documents/libOpenCM3/libopencm3/lib/libopencm3_stm32l4.a(timer_common_all.o)
 .text.timer_continuous_mode
                0x0000000000000000        0xa /home/lubuntu/Documents/libOpenCM3/libopencm3/lib/libopencm3_stm32l4.a(timer_common_all.o)
 .text.timer_update_on_any
                0x0000000000000000        0xa /home/lubuntu/Documents/libOpenCM3/libopencm3/lib/libopencm3_stm32l4.a(timer_common_all.o)
 .text.timer_update_on_overflow
                0x0000000000000000        0xa /home/lubuntu/Documents/libOpenCM3/libopencm3/lib/libopencm3_stm32l4.a(timer_common_all.o)
 .text.timer_enable_update_event
                0x0000000000000000        0xa /home/lubuntu/Documents/libOpenCM3/libopencm3/lib/libopencm3_stm32l4.a(timer_common_all.o)
 .text.timer_disable_update_event
                0x0000000000000000        0xa /home/lubuntu/Documents/libOpenCM3/libopencm3/lib/libopencm3_stm32l4.a(timer_common_all.o)
 .text.timer_disable_counter
                0x0000000000000000        0xa /home/lubuntu/Documents/libOpenCM3/libopencm3/lib/libopencm3_stm32l4.a(timer_common_all.o)
 .text.timer_set_output_idle_state
                0x0000000000000000        0xc /home/lubuntu/Documents/libOpenCM3/libopencm3/lib/libopencm3_stm32l4.a(timer_common_all.o)
 .text.timer_reset_output_idle_state
                0x0000000000000000        0xe /home/lubuntu/Documents/libOpenCM3/libopencm3/lib/libopencm3_stm32l4.a(timer_common_all.o)
 .text.timer_set_ti1_ch123_xor
                0x0000000000000000        0xa /home/lubuntu/Documents/libOpenCM3/libopencm3/lib/libopencm3_stm32l4.a(timer_common_all.o)
 .text.timer_set_ti1_ch1
                0x0000000000000000        0xa /home/lubuntu/Documents/libOpenCM3/libopencm3/lib/libopencm3_stm32l4.a(timer_common_all.o)
 .text.timer_set_master_mode
                0x0000000000000000       0x10 /home/lubuntu/Documents/libOpenCM3/libopencm3/lib/libopencm3_stm32l4.a(timer_common_all.o)
 .text.timer_set_dma_on_compare_event
                0x0000000000000000        0xa /home/lubuntu/Documents/libOpenCM3/libopencm3/lib/libopencm3_stm32l4.a(timer_common_all.o)
 .text.timer_set_dma_on_update_event
                0x0000000000000000        0xa /home/lubuntu/Documents/libOpenCM3/libopencm3/lib/libopencm3_stm32l4.a(timer_common_all.o)
 .text.timer_enable_compare_control_update_on_trigger
                0x0000000000000000        0xa /home/lubuntu/Documents/libOpenCM3/libopencm3/lib/libopencm3_stm32l4.a(timer_common_all.o)
 .text.timer_disable_compare_control_update_on_trigger
                0x0000000000000000        0xa /home/lubuntu/Documents/libOpenCM3/libopencm3/lib/libopencm3_stm32l4.a(timer_common_all.o)
 .text.timer_enable_preload_complementry_enable_bits
                0x0000000000000000        0xa /home/lubuntu/Documents/libOpenCM3/libopencm3/lib/libopencm3_stm32l4.a(timer_common_all.o)
 .text.timer_disable_preload_complementry_enable_bits
                0x0000000000000000        0xa /home/lubuntu/Documents/libOpenCM3/libopencm3/lib/libopencm3_stm32l4.a(timer_common_all.o)
 .text.timer_set_repetition_counter
                0x0000000000000000        0x4 /home/lubuntu/Documents/libOpenCM3/libopencm3/lib/libopencm3_stm32l4.a(timer_common_all.o)
 .text.timer_enable_oc_clear
                0x0000000000000000       0x34 /home/lubuntu/Documents/libOpenCM3/libopencm3/lib/libopencm3_stm32l4.a(timer_common_all.o)
 .text.timer_disable_oc_clear
                0x0000000000000000       0x34 /home/lubuntu/Documents/libOpenCM3/libopencm3/lib/libopencm3_stm32l4.a(timer_common_all.o)
 .text.timer_set_oc_fast_mode
                0x0000000000000000       0x34 /home/lubuntu/Documents/libOpenCM3/libopencm3/lib/libopencm3_stm32l4.a(timer_common_all.o)
 .text.timer_set_oc_slow_mode
                0x0000000000000000       0x34 /home/lubuntu/Documents/libOpenCM3/libopencm3/lib/libopencm3_stm32l4.a(timer_common_all.o)
 .text.timer_set_oc_mode
                0x0000000000000000      0x18c /home/lubuntu/Documents/libOpenCM3/libopencm3/lib/libopencm3_stm32l4.a(timer_common_all.o)
 .text.timer_enable_oc_preload
                0x0000000000000000       0x34 /home/lubuntu/Documents/libOpenCM3/libopencm3/lib/libopencm3_stm32l4.a(timer_common_all.o)
 .text.timer_disable_oc_preload
                0x0000000000000000       0x34 /home/lubuntu/Documents/libOpenCM3/libopencm3/lib/libopencm3_stm32l4.a(timer_common_all.o)
 .text.timer_set_oc_polarity_high
                0x0000000000000000       0x4a /home/lubuntu/Documents/libOpenCM3/libopencm3/lib/libopencm3_stm32l4.a(timer_common_all.o)
 .text.timer_set_oc_polarity_low
                0x0000000000000000       0x4a /home/lubuntu/Documents/libOpenCM3/libopencm3/lib/libopencm3_stm32l4.a(timer_common_all.o)
 .text.timer_enable_oc_output
                0x0000000000000000       0x4a /home/lubuntu/Documents/libOpenCM3/libopencm3/lib/libopencm3_stm32l4.a(timer_common_all.o)
 .text.timer_disable_oc_output
                0x0000000000000000       0x4a /home/lubuntu/Documents/libOpenCM3/libopencm3/lib/libopencm3_stm32l4.a(timer_common_all.o)
 .text.timer_set_oc_idle_state_set
                0x0000000000000000       0x4a /home/lubuntu/Documents/libOpenCM3/libopencm3/lib/libopencm3_stm32l4.a(timer_common_all.o)
 .text.timer_set_oc_idle_state_unset
                0x0000000000000000       0x4a /home/lubuntu/Documents/libOpenCM3/libopencm3/lib/libopencm3_stm32l4.a(timer_common_all.o)
 .text.timer_set_oc_value
                0x0000000000000000       0x20 /home/lubuntu/Documents/libOpenCM3/libopencm3/lib/libopencm3_stm32l4.a(timer_common_all.o)
 .text.timer_enable_break_main_output
                0x0000000000000000        0xa /home/lubuntu/Documents/libOpenCM3/libopencm3/lib/libopencm3_stm32l4.a(timer_common_all.o)
 .text.timer_disable_break_main_output
                0x0000000000000000        0xa /home/lubuntu/Documents/libOpenCM3/libopencm3/lib/libopencm3_stm32l4.a(timer_common_all.o)
 .text.timer_enable_break_automatic_output
                0x0000000000000000        0xa /home/lubuntu/Documents/libOpenCM3/libopencm3/lib/libopencm3_stm32l4.a(timer_common_all.o)
 .text.timer_disable_break_automatic_output
                0x0000000000000000        0xa /home/lubuntu/Documents/libOpenCM3/libopencm3/lib/libopencm3_stm32l4.a(timer_common_all.o)
 .text.timer_set_break_polarity_high
                0x0000000000000000        0xa /home/lubuntu/Documents/libOpenCM3/libopencm3/lib/libopencm3_stm32l4.a(timer_common_all.o)
 .text.timer_set_break_polarity_low
                0x0000000000000000        0xa /home/lubuntu/Documents/libOpenCM3/libopencm3/lib/libopencm3_stm32l4.a(timer_common_all.o)
 .text.timer_enable_break
                0x0000000000000000        0xa /home/lubuntu/Documents/libOpenCM3/libopencm3/lib/libopencm3_stm32l4.a(timer_common_all.o)
 .text.timer_disable_break
                0x0000000000000000        0xa /home/lubuntu/Documents/libOpenCM3/libopencm3/lib/libopencm3_stm32l4.a(timer_common_all.o)
 .text.timer_set_enabled_off_state_in_run_mode
                0x0000000000000000        0xa /home/lubuntu/Documents/libOpenCM3/libopencm3/lib/libopencm3_stm32l4.a(timer_common_all.o)
 .text.timer_set_disabled_off_state_in_run_mode
                0x0000000000000000        0xa /home/lubuntu/Documents/libOpenCM3/libopencm3/lib/libopencm3_stm32l4.a(timer_common_all.o)
 .text.timer_set_enabled_off_state_in_idle_mode
                0x0000000000000000        0xa /home/lubuntu/Documents/libOpenCM3/libopencm3/lib/libopencm3_stm32l4.a(timer_common_all.o)
 .text.timer_set_disabled_off_state_in_idle_mode
                0x0000000000000000        0xa /home/lubuntu/Documents/libOpenCM3/libopencm3/lib/libopencm3_stm32l4.a(timer_common_all.o)
 .text.timer_set_break_lock
                0x0000000000000000        0x8 /home/lubuntu/Documents/libOpenCM3/libopencm3/lib/libopencm3_stm32l4.a(timer_common_all.o)
 .text.timer_set_deadtime
                0x0000000000000000        0x4 /home/lubuntu/Documents/libOpenCM3/libopencm3/lib/libopencm3_stm32l4.a(timer_common_all.o)
 .text.timer_generate_event
                0x0000000000000000        0x8 /home/lubuntu/Documents/libOpenCM3/libopencm3/lib/libopencm3_stm32l4.a(timer_common_all.o)
 .text.timer_get_counter
                0x0000000000000000        0x4 /home/lubuntu/Documents/libOpenCM3/libopencm3/lib/libopencm3_stm32l4.a(timer_common_all.o)
 .text.timer_set_counter
                0x0000000000000000        0x4 /home/lubuntu/Documents/libOpenCM3/libopencm3/lib/libopencm3_stm32l4.a(timer_common_all.o)
 .text.timer_ic_set_filter
                0x0000000000000000       0x50 /home/lubuntu/Documents/libOpenCM3/libopencm3/lib/libopencm3_stm32l4.a(timer_common_all.o)
 .text.timer_ic_set_prescaler
                0x0000000000000000       0x50 /home/lubuntu/Documents/libOpenCM3/libopencm3/lib/libopencm3_stm32l4.a(timer_common_all.o)
 .text.timer_ic_set_input
                0x0000000000000000       0x62 /home/lubuntu/Documents/libOpenCM3/libopencm3/lib/libopencm3_stm32l4.a(timer_common_all.o)
 .text.timer_ic_enable
                0x0000000000000000       0x10 /home/lubuntu/Documents/libOpenCM3/libopencm3/lib/libopencm3_stm32l4.a(timer_common_all.o)
 .text.timer_ic_disable
                0x0000000000000000       0x12 /home/lubuntu/Documents/libOpenCM3/libopencm3/lib/libopencm3_stm32l4.a(timer_common_all.o)
 .text.timer_slave_set_filter
                0x0000000000000000       0x12 /home/lubuntu/Documents/libOpenCM3/libopencm3/lib/libopencm3_stm32l4.a(timer_common_all.o)
 .text.timer_slave_set_prescaler
                0x0000000000000000       0x12 /home/lubuntu/Documents/libOpenCM3/libopencm3/lib/libopencm3_stm32l4.a(timer_common_all.o)
 .text.timer_slave_set_polarity
                0x0000000000000000       0x12 /home/lubuntu/Documents/libOpenCM3/libopencm3/lib/libopencm3_stm32l4.a(timer_common_all.o)
 .text.timer_slave_set_mode
                0x0000000000000000       0x10 /home/lubuntu/Documents/libOpenCM3/libopencm3/lib/libopencm3_stm32l4.a(timer_common_all.o)
 .text.timer_slave_set_trigger
                0x0000000000000000       0x10 /home/lubuntu/Documents/libOpenCM3/libopencm3/lib/libopencm3_stm32l4.a(timer_common_all.o)
 .debug_macro   0x0000000000000000      0xa6c /home/lubuntu/Documents/libOpenCM3/libopencm3/lib/libopencm3_stm32l4.a(timer_common_all.o)
 .debug_macro   0x0000000000000000       0x1c /home/lubuntu/Documents/libOpenCM3/libopencm3/lib/libopencm3_stm32l4.a(timer_common_all.o)
 .debug_macro   0x0000000000000000       0x22 /home/lubuntu/Documents/libOpenCM3/libopencm3/lib/libopencm3_stm32l4.a(timer_common_all.o)
 .debug_macro   0x0000000000000000       0x56 /home/lubuntu/Documents/libOpenCM3/libopencm3/lib/libopencm3_stm32l4.a(timer_common_all.o)
 .debug_macro   0x0000000000000000       0x51 /home/lubuntu/Documents/libOpenCM3/libopencm3/lib/libopencm3_stm32l4.a(timer_common_all.o)
 .debug_macro   0x0000000000000000      0x103 /home/lubuntu/Documents/libOpenCM3/libopencm3/lib/libopencm3_stm32l4.a(timer_common_all.o)
 .debug_macro   0x0000000000000000       0x6a /home/lubuntu/Documents/libOpenCM3/libopencm3/lib/libopencm3_stm32l4.a(timer_common_all.o)
 .debug_macro   0x0000000000000000      0x1df /home/lubuntu/Documents/libOpenCM3/libopencm3/lib/libopencm3_stm32l4.a(timer_common_all.o)
 .debug_macro   0x0000000000000000       0x22 /home/lubuntu/Documents/libOpenCM3/libopencm3/lib/libopencm3_stm32l4.a(timer_common_all.o)
 .debug_macro   0x0000000000000000       0xe8 /home/lubuntu/Documents/libOpenCM3/libopencm3/lib/libopencm3_stm32l4.a(timer_common_all.o)
 .debug_macro   0x0000000000000000       0x76 /home/lubuntu/Documents/libOpenCM3/libopencm3/lib/libopencm3_stm32l4.a(timer_common_all.o)
 .debug_macro   0x0000000000000000      0x217 /home/lubuntu/Documents/libOpenCM3/libopencm3/lib/libopencm3_stm32l4.a(timer_common_all.o)
 .debug_macro   0x0000000000000000      0xcfc /home/lubuntu/Documents/libOpenCM3/libopencm3/lib/libopencm3_stm32l4.a(timer_common_all.o)
 .group         0x0000000000000000        0xc /home/lubuntu/Documents/libOpenCM3/libopencm3/lib/libopencm3_stm32l4.a(usart_common_all.o)
 .group         0x0000000000000000        0xc /home/lubuntu/Documents/libOpenCM3/libopencm3/lib/libopencm3_stm32l4.a(usart_common_all.o)
 .group         0x0000000000000000        0xc /home/lubuntu/Documents/libOpenCM3/libopencm3/lib/libopencm3_stm32l4.a(usart_common_all.o)
 .group         0x0000000000000000        0xc /home/lubuntu/Documents/libOpenCM3/libopencm3/lib/libopencm3_stm32l4.a(usart_common_all.o)
 .group         0x0000000000000000        0xc /home/lubuntu/Documents/libOpenCM3/libopencm3/lib/libopencm3_stm32l4.a(usart_common_all.o)
 .group         0x0000000000000000        0xc /home/lubuntu/Documents/libOpenCM3/libopencm3/lib/libopencm3_stm32l4.a(usart_common_all.o)
 .group         0x0000000000000000        0xc /home/lubuntu/Documents/libOpenCM3/libopencm3/lib/libopencm3_stm32l4.a(usart_common_all.o)
 .group         0x0000000000000000        0xc /home/lubuntu/Documents/libOpenCM3/libopencm3/lib/libopencm3_stm32l4.a(usart_common_all.o)
 .group         0x0000000000000000        0xc /home/lubuntu/Documents/libOpenCM3/libopencm3/lib/libopencm3_stm32l4.a(usart_common_all.o)
 .group         0x0000000000000000        0xc /home/lubuntu/Documents/libOpenCM3/libopencm3/lib/libopencm3_stm32l4.a(usart_common_all.o)
 .group         0x0000000000000000        0xc /home/lubuntu/Documents/libOpenCM3/libopencm3/lib/libopencm3_stm32l4.a(usart_common_all.o)
 .group         0x0000000000000000        0xc /home/lubuntu/Documents/libOpenCM3/libopencm3/lib/libopencm3_stm32l4.a(usart_common_all.o)
 .group         0x0000000000000000        0xc /home/lubuntu/Documents/libOpenCM3/libopencm3/lib/libopencm3_stm32l4.a(usart_common_all.o)
 .group         0x0000000000000000        0xc /home/lubuntu/Documents/libOpenCM3/libopencm3/lib/libopencm3_stm32l4.a(usart_common_all.o)
 .group         0x0000000000000000        0xc /home/lubuntu/Documents/libOpenCM3/libopencm3/lib/libopencm3_stm32l4.a(usart_common_all.o)
 .group         0x0000000000000000        0xc /home/lubuntu/Documents/libOpenCM3/libopencm3/lib/libopencm3_stm32l4.a(usart_common_all.o)
 .text          0x0000000000000000        0x0 /home/lubuntu/Documents/libOpenCM3/libopencm3/lib/libopencm3_stm32l4.a(usart_common_all.o)
 .data          0x0000000000000000        0x0 /home/lubuntu/Documents/libOpenCM3/libopencm3/lib/libopencm3_stm32l4.a(usart_common_all.o)
 .bss           0x0000000000000000        0x0 /home/lubuntu/Documents/libOpenCM3/libopencm3/lib/libopencm3_stm32l4.a(usart_common_all.o)
 .text.usart_disable
                0x0000000000000000        0xa /home/lubuntu/Documents/libOpenCM3/libopencm3/lib/libopencm3_stm32l4.a(usart_common_all.o)
 .text.usart_enable_rx_dma
                0x0000000000000000        0xa /home/lubuntu/Documents/libOpenCM3/libopencm3/lib/libopencm3_stm32l4.a(usart_common_all.o)
 .text.usart_disable_rx_dma
                0x0000000000000000        0xa /home/lubuntu/Documents/libOpenCM3/libopencm3/lib/libopencm3_stm32l4.a(usart_common_all.o)
 .text.usart_enable_tx_dma
                0x0000000000000000        0xa /home/lubuntu/Documents/libOpenCM3/libopencm3/lib/libopencm3_stm32l4.a(usart_common_all.o)
 .text.usart_disable_tx_dma
                0x0000000000000000        0xa /home/lubuntu/Documents/libOpenCM3/libopencm3/lib/libopencm3_stm32l4.a(usart_common_all.o)
 .text.usart_enable_rx_interrupt
                0x0000000000000000        0xa /home/lubuntu/Documents/libOpenCM3/libopencm3/lib/libopencm3_stm32l4.a(usart_common_all.o)
 .text.usart_disable_rx_interrupt
                0x0000000000000000        0xa /home/lubuntu/Documents/libOpenCM3/libopencm3/lib/libopencm3_stm32l4.a(usart_common_all.o)
 .text.usart_enable_tx_interrupt
                0x0000000000000000        0xa /home/lubuntu/Documents/libOpenCM3/libopencm3/lib/libopencm3_stm32l4.a(usart_common_all.o)
 .text.usart_disable_tx_interrupt
                0x0000000000000000        0xa /home/lubuntu/Documents/libOpenCM3/libopencm3/lib/libopencm3_stm32l4.a(usart_common_all.o)
 .text.usart_enable_tx_complete_interrupt
                0x0000000000000000        0xa /home/lubuntu/Documents/libOpenCM3/libopencm3/lib/libopencm3_stm32l4.a(usart_common_all.o)
 .text.usart_disable_tx_complete_interrupt
                0x0000000000000000        0xa /home/lubuntu/Documents/libOpenCM3/libopencm3/lib/libopencm3_stm32l4.a(usart_common_all.o)
 .text.usart_enable_idle_interrupt
                0x0000000000000000        0xa /home/lubuntu/Documents/libOpenCM3/libopencm3/lib/libopencm3_stm32l4.a(usart_common_all.o)
 .text.usart_disable_idle_interrupt
                0x0000000000000000        0xa /home/lubuntu/Documents/libOpenCM3/libopencm3/lib/libopencm3_stm32l4.a(usart_common_all.o)
 .text.usart_enable_error_interrupt
                0x0000000000000000        0xa /home/lubuntu/Documents/libOpenCM3/libopencm3/lib/libopencm3_stm32l4.a(usart_common_all.o)
 .text.usart_disable_error_interrupt
                0x0000000000000000        0xa /home/lubuntu/Documents/libOpenCM3/libopencm3/lib/libopencm3_stm32l4.a(usart_common_all.o)
 .debug_macro   0x0000000000000000      0xa6c /home/lubuntu/Documents/libOpenCM3/libopencm3/lib/libopencm3_stm32l4.a(usart_common_all.o)
 .debug_macro   0x0000000000000000       0x1c /home/lubuntu/Documents/libOpenCM3/libopencm3/lib/libopencm3_stm32l4.a(usart_common_all.o)
 .debug_macro   0x0000000000000000       0x22 /home/lubuntu/Documents/libOpenCM3/libopencm3/lib/libopencm3_stm32l4.a(usart_common_all.o)
 .debug_macro   0x0000000000000000       0x56 /home/lubuntu/Documents/libOpenCM3/libopencm3/lib/libopencm3_stm32l4.a(usart_common_all.o)
 .debug_macro   0x0000000000000000       0x51 /home/lubuntu/Documents/libOpenCM3/libopencm3/lib/libopencm3_stm32l4.a(usart_common_all.o)
 .debug_macro   0x0000000000000000      0x103 /home/lubuntu/Documents/libOpenCM3/libopencm3/lib/libopencm3_stm32l4.a(usart_common_all.o)
 .debug_macro   0x0000000000000000       0x6a /home/lubuntu/Documents/libOpenCM3/libopencm3/lib/libopencm3_stm32l4.a(usart_common_all.o)
 .debug_macro   0x0000000000000000      0x1df /home/lubuntu/Documents/libOpenCM3/libopencm3/lib/libopencm3_stm32l4.a(usart_common_all.o)
 .debug_macro   0x0000000000000000       0x22 /home/lubuntu/Documents/libOpenCM3/libopencm3/lib/libopencm3_stm32l4.a(usart_common_all.o)
 .debug_macro   0x0000000000000000       0xe8 /home/lubuntu/Documents/libOpenCM3/libopencm3/lib/libopencm3_stm32l4.a(usart_common_all.o)
 .debug_macro   0x0000000000000000       0x76 /home/lubuntu/Documents/libOpenCM3/libopencm3/lib/libopencm3_stm32l4.a(usart_common_all.o)
 .debug_macro   0x0000000000000000      0x217 /home/lubuntu/Documents/libOpenCM3/libopencm3/lib/libopencm3_stm32l4.a(usart_common_all.o)
 .debug_macro   0x0000000000000000      0xcfc /home/lubuntu/Documents/libOpenCM3/libopencm3/lib/libopencm3_stm32l4.a(usart_common_all.o)
 .group         0x0000000000000000        0xc /home/lubuntu/Documents/libOpenCM3/libopencm3/lib/libopencm3_stm32l4.a(usart_common_v2.o)
 .group         0x0000000000000000        0xc /home/lubuntu/Documents/libOpenCM3/libopencm3/lib/libopencm3_stm32l4.a(usart_common_v2.o)
 .group         0x0000000000000000        0xc /home/lubuntu/Documents/libOpenCM3/libopencm3/lib/libopencm3_stm32l4.a(usart_common_v2.o)
 .group         0x0000000000000000        0xc /home/lubuntu/Documents/libOpenCM3/libopencm3/lib/libopencm3_stm32l4.a(usart_common_v2.o)
 .group         0x0000000000000000        0xc /home/lubuntu/Documents/libOpenCM3/libopencm3/lib/libopencm3_stm32l4.a(usart_common_v2.o)
 .group         0x0000000000000000        0xc /home/lubuntu/Documents/libOpenCM3/libopencm3/lib/libopencm3_stm32l4.a(usart_common_v2.o)
 .group         0x0000000000000000        0xc /home/lubuntu/Documents/libOpenCM3/libopencm3/lib/libopencm3_stm32l4.a(usart_common_v2.o)
 .group         0x0000000000000000        0xc /home/lubuntu/Documents/libOpenCM3/libopencm3/lib/libopencm3_stm32l4.a(usart_common_v2.o)
 .group         0x0000000000000000        0xc /home/lubuntu/Documents/libOpenCM3/libopencm3/lib/libopencm3_stm32l4.a(usart_common_v2.o)
 .group         0x0000000000000000        0xc /home/lubuntu/Documents/libOpenCM3/libopencm3/lib/libopencm3_stm32l4.a(usart_common_v2.o)
 .group         0x0000000000000000        0xc /home/lubuntu/Documents/libOpenCM3/libopencm3/lib/libopencm3_stm32l4.a(usart_common_v2.o)
 .group         0x0000000000000000        0xc /home/lubuntu/Documents/libOpenCM3/libopencm3/lib/libopencm3_stm32l4.a(usart_common_v2.o)
 .group         0x0000000000000000        0xc /home/lubuntu/Documents/libOpenCM3/libopencm3/lib/libopencm3_stm32l4.a(usart_common_v2.o)
 .group         0x0000000000000000        0xc /home/lubuntu/Documents/libOpenCM3/libopencm3/lib/libopencm3_stm32l4.a(usart_common_v2.o)
 .group         0x0000000000000000        0xc /home/lubuntu/Documents/libOpenCM3/libopencm3/lib/libopencm3_stm32l4.a(usart_common_v2.o)
 .text          0x0000000000000000        0x0 /home/lubuntu/Documents/libOpenCM3/libopencm3/lib/libopencm3_stm32l4.a(usart_common_v2.o)
 .data          0x0000000000000000        0x0 /home/lubuntu/Documents/libOpenCM3/libopencm3/lib/libopencm3_stm32l4.a(usart_common_v2.o)
 .bss           0x0000000000000000        0x0 /home/lubuntu/Documents/libOpenCM3/libopencm3/lib/libopencm3_stm32l4.a(usart_common_v2.o)
 .text.usart_enable_data_inversion
                0x0000000000000000        0xa /home/lubuntu/Documents/libOpenCM3/libopencm3/lib/libopencm3_stm32l4.a(usart_common_v2.o)
 .text.usart_disable_data_inversion
                0x0000000000000000        0xa /home/lubuntu/Documents/libOpenCM3/libopencm3/lib/libopencm3_stm32l4.a(usart_common_v2.o)
 .text.usart_enable_tx_inversion
                0x0000000000000000        0xa /home/lubuntu/Documents/libOpenCM3/libopencm3/lib/libopencm3_stm32l4.a(usart_common_v2.o)
 .text.usart_disable_tx_inversion
                0x0000000000000000        0xa /home/lubuntu/Documents/libOpenCM3/libopencm3/lib/libopencm3_stm32l4.a(usart_common_v2.o)
 .text.usart_enable_rx_inversion
                0x0000000000000000        0xa /home/lubuntu/Documents/libOpenCM3/libopencm3/lib/libopencm3_stm32l4.a(usart_common_v2.o)
 .text.usart_disable_rx_inversion
                0x0000000000000000        0xa /home/lubuntu/Documents/libOpenCM3/libopencm3/lib/libopencm3_stm32l4.a(usart_common_v2.o)
 .text.usart_enable_halfduplex
                0x0000000000000000        0xa /home/lubuntu/Documents/libOpenCM3/libopencm3/lib/libopencm3_stm32l4.a(usart_common_v2.o)
 .text.usart_disable_halfduplex
                0x0000000000000000        0xa /home/lubuntu/Documents/libOpenCM3/libopencm3/lib/libopencm3_stm32l4.a(usart_common_v2.o)
 .text.usart_set_rx_timeout_value
                0x0000000000000000       0x10 /home/lubuntu/Documents/libOpenCM3/libopencm3/lib/libopencm3_stm32l4.a(usart_common_v2.o)
 .text.usart_enable_rx_timeout
                0x0000000000000000        0xa /home/lubuntu/Documents/libOpenCM3/libopencm3/lib/libopencm3_stm32l4.a(usart_common_v2.o)
 .text.usart_disable_rx_timeout
                0x0000000000000000        0xa /home/lubuntu/Documents/libOpenCM3/libopencm3/lib/libopencm3_stm32l4.a(usart_common_v2.o)
 .text.usart_enable_rx_timeout_interrupt
                0x0000000000000000        0xa /home/lubuntu/Documents/libOpenCM3/libopencm3/lib/libopencm3_stm32l4.a(usart_common_v2.o)
 .text.usart_disable_rx_timeout_interrupt
                0x0000000000000000        0xa /home/lubuntu/Documents/libOpenCM3/libopencm3/lib/libopencm3_stm32l4.a(usart_common_v2.o)
 .debug_macro   0x0000000000000000      0xa6c /home/lubuntu/Documents/libOpenCM3/libopencm3/lib/libopencm3_stm32l4.a(usart_common_v2.o)
 .debug_macro   0x0000000000000000       0x1c /home/lubuntu/Documents/libOpenCM3/libopencm3/lib/libopencm3_stm32l4.a(usart_common_v2.o)
 .debug_macro   0x0000000000000000       0x22 /home/lubuntu/Documents/libOpenCM3/libopencm3/lib/libopencm3_stm32l4.a(usart_common_v2.o)
 .debug_macro   0x0000000000000000       0x56 /home/lubuntu/Documents/libOpenCM3/libopencm3/lib/libopencm3_stm32l4.a(usart_common_v2.o)
 .debug_macro   0x0000000000000000       0x51 /home/lubuntu/Documents/libOpenCM3/libopencm3/lib/libopencm3_stm32l4.a(usart_common_v2.o)
 .debug_macro   0x0000000000000000      0x103 /home/lubuntu/Documents/libOpenCM3/libopencm3/lib/libopencm3_stm32l4.a(usart_common_v2.o)
 .debug_macro   0x0000000000000000       0x6a /home/lubuntu/Documents/libOpenCM3/libopencm3/lib/libopencm3_stm32l4.a(usart_common_v2.o)
 .debug_macro   0x0000000000000000      0x1df /home/lubuntu/Documents/libOpenCM3/libopencm3/lib/libopencm3_stm32l4.a(usart_common_v2.o)
 .debug_macro   0x0000000000000000       0x22 /home/lubuntu/Documents/libOpenCM3/libopencm3/lib/libopencm3_stm32l4.a(usart_common_v2.o)
 .debug_macro   0x0000000000000000       0xe8 /home/lubuntu/Documents/libOpenCM3/libopencm3/lib/libopencm3_stm32l4.a(usart_common_v2.o)
 .debug_macro   0x0000000000000000       0x76 /home/lubuntu/Documents/libOpenCM3/libopencm3/lib/libopencm3_stm32l4.a(usart_common_v2.o)
 .debug_macro   0x0000000000000000      0x217 /home/lubuntu/Documents/libOpenCM3/libopencm3/lib/libopencm3_stm32l4.a(usart_common_v2.o)
 .debug_macro   0x0000000000000000       0x94 /home/lubuntu/Documents/libOpenCM3/libopencm3/lib/libopencm3_stm32l4.a(usart_common_v2.o)
 .debug_macro   0x0000000000000000      0x55b /home/lubuntu/Documents/libOpenCM3/libopencm3/lib/libopencm3_stm32l4.a(usart_common_v2.o)
 .debug_macro   0x0000000000000000       0x28 /home/lubuntu/Documents/libOpenCM3/libopencm3/lib/libopencm3_stm32l4.a(usart_common_v2.o)
 .group         0x0000000000000000        0xc /home/lubuntu/Documents/libOpenCM3/libopencm3/lib/libopencm3_stm32l4.a(vector.o)
 .group         0x0000000000000000        0xc /home/lubuntu/Documents/libOpenCM3/libopencm3/lib/libopencm3_stm32l4.a(vector.o)
 .group         0x0000000000000000        0xc /home/lubuntu/Documents/libOpenCM3/libopencm3/lib/libopencm3_stm32l4.a(vector.o)
 .group         0x0000000000000000        0xc /home/lubuntu/Documents/libOpenCM3/libopencm3/lib/libopencm3_stm32l4.a(vector.o)
 .group         0x0000000000000000        0xc /home/lubuntu/Documents/libOpenCM3/libopencm3/lib/libopencm3_stm32l4.a(vector.o)
 .group         0x0000000000000000        0xc /home/lubuntu/Documents/libOpenCM3/libopencm3/lib/libopencm3_stm32l4.a(vector.o)
 .group         0x0000000000000000        0xc /home/lubuntu/Documents/libOpenCM3/libopencm3/lib/libopencm3_stm32l4.a(vector.o)
 .group         0x0000000000000000        0xc /home/lubuntu/Documents/libOpenCM3/libopencm3/lib/libopencm3_stm32l4.a(vector.o)
 .group         0x0000000000000000        0xc /home/lubuntu/Documents/libOpenCM3/libopencm3/lib/libopencm3_stm32l4.a(vector.o)
 .group         0x0000000000000000        0xc /home/lubuntu/Documents/libOpenCM3/libopencm3/lib/libopencm3_stm32l4.a(vector.o)
 .group         0x0000000000000000        0xc /home/lubuntu/Documents/libOpenCM3/libopencm3/lib/libopencm3_stm32l4.a(vector.o)
 .group         0x0000000000000000        0xc /home/lubuntu/Documents/libOpenCM3/libopencm3/lib/libopencm3_stm32l4.a(vector.o)
 .group         0x0000000000000000        0xc /home/lubuntu/Documents/libOpenCM3/libopencm3/lib/libopencm3_stm32l4.a(vector.o)
 .group         0x0000000000000000        0xc /home/lubuntu/Documents/libOpenCM3/libopencm3/lib/libopencm3_stm32l4.a(vector.o)
 .text          0x0000000000000000        0x0 /home/lubuntu/Documents/libOpenCM3/libopencm3/lib/libopencm3_stm32l4.a(vector.o)
 .data          0x0000000000000000        0x0 /home/lubuntu/Documents/libOpenCM3/libopencm3/lib/libopencm3_stm32l4.a(vector.o)
 .bss           0x0000000000000000        0x0 /home/lubuntu/Documents/libOpenCM3/libopencm3/lib/libopencm3_stm32l4.a(vector.o)
 .debug_macro   0x0000000000000000      0xa6c /home/lubuntu/Documents/libOpenCM3/libopencm3/lib/libopencm3_stm32l4.a(vector.o)
 .debug_macro   0x0000000000000000       0x76 /home/lubuntu/Documents/libOpenCM3/libopencm3/lib/libopencm3_stm32l4.a(vector.o)
 .debug_macro   0x0000000000000000       0x1c /home/lubuntu/Documents/libOpenCM3/libopencm3/lib/libopencm3_stm32l4.a(vector.o)
 .debug_macro   0x0000000000000000       0x22 /home/lubuntu/Documents/libOpenCM3/libopencm3/lib/libopencm3_stm32l4.a(vector.o)
 .debug_macro   0x0000000000000000       0x56 /home/lubuntu/Documents/libOpenCM3/libopencm3/lib/libopencm3_stm32l4.a(vector.o)
 .debug_macro   0x0000000000000000       0x51 /home/lubuntu/Documents/libOpenCM3/libopencm3/lib/libopencm3_stm32l4.a(vector.o)
 .debug_macro   0x0000000000000000      0x103 /home/lubuntu/Documents/libOpenCM3/libopencm3/lib/libopencm3_stm32l4.a(vector.o)
 .debug_macro   0x0000000000000000       0x6a /home/lubuntu/Documents/libOpenCM3/libopencm3/lib/libopencm3_stm32l4.a(vector.o)
 .debug_macro   0x0000000000000000      0x1df /home/lubuntu/Documents/libOpenCM3/libopencm3/lib/libopencm3_stm32l4.a(vector.o)
 .debug_macro   0x0000000000000000       0x22 /home/lubuntu/Documents/libOpenCM3/libopencm3/lib/libopencm3_stm32l4.a(vector.o)
 .debug_macro   0x0000000000000000       0xe8 /home/lubuntu/Documents/libOpenCM3/libopencm3/lib/libopencm3_stm32l4.a(vector.o)
 .group         0x0000000000000000        0xc /home/lubuntu/Documents/libOpenCM3/libopencm3/lib/libopencm3_stm32l4.a(assert.o)
 .group         0x0000000000000000        0xc /home/lubuntu/Documents/libOpenCM3/libopencm3/lib/libopencm3_stm32l4.a(assert.o)
 .group         0x0000000000000000        0xc /home/lubuntu/Documents/libOpenCM3/libopencm3/lib/libopencm3_stm32l4.a(assert.o)
 .group         0x0000000000000000        0xc /home/lubuntu/Documents/libOpenCM3/libopencm3/lib/libopencm3_stm32l4.a(assert.o)
 .group         0x0000000000000000        0xc /home/lubuntu/Documents/libOpenCM3/libopencm3/lib/libopencm3_stm32l4.a(assert.o)
 .group         0x0000000000000000        0xc /home/lubuntu/Documents/libOpenCM3/libopencm3/lib/libopencm3_stm32l4.a(assert.o)
 .group         0x0000000000000000        0xc /home/lubuntu/Documents/libOpenCM3/libopencm3/lib/libopencm3_stm32l4.a(assert.o)
 .group         0x0000000000000000        0xc /home/lubuntu/Documents/libOpenCM3/libopencm3/lib/libopencm3_stm32l4.a(assert.o)
 .group         0x0000000000000000        0xc /home/lubuntu/Documents/libOpenCM3/libopencm3/lib/libopencm3_stm32l4.a(assert.o)
 .group         0x0000000000000000        0xc /home/lubuntu/Documents/libOpenCM3/libopencm3/lib/libopencm3_stm32l4.a(assert.o)
 .group         0x0000000000000000        0xc /home/lubuntu/Documents/libOpenCM3/libopencm3/lib/libopencm3_stm32l4.a(assert.o)
 .text          0x0000000000000000        0x0 /home/lubuntu/Documents/libOpenCM3/libopencm3/lib/libopencm3_stm32l4.a(assert.o)
 .data          0x0000000000000000        0x0 /home/lubuntu/Documents/libOpenCM3/libopencm3/lib/libopencm3_stm32l4.a(assert.o)
 .bss           0x0000000000000000        0x0 /home/lubuntu/Documents/libOpenCM3/libopencm3/lib/libopencm3_stm32l4.a(assert.o)
 .text.cm3_assert_failed
                0x0000000000000000        0x2 /home/lubuntu/Documents/libOpenCM3/libopencm3/lib/libopencm3_stm32l4.a(assert.o)
 .text.cm3_assert_failed_verbose
                0x0000000000000000        0x6 /home/lubuntu/Documents/libOpenCM3/libopencm3/lib/libopencm3_stm32l4.a(assert.o)
 .debug_info    0x0000000000000000      0x104 /home/lubuntu/Documents/libOpenCM3/libopencm3/lib/libopencm3_stm32l4.a(assert.o)
 .debug_abbrev  0x0000000000000000       0x98 /home/lubuntu/Documents/libOpenCM3/libopencm3/lib/libopencm3_stm32l4.a(assert.o)
 .debug_loc     0x0000000000000000       0x94 /home/lubuntu/Documents/libOpenCM3/libopencm3/lib/libopencm3_stm32l4.a(assert.o)
 .debug_aranges
                0x0000000000000000       0x28 /home/lubuntu/Documents/libOpenCM3/libopencm3/lib/libopencm3_stm32l4.a(assert.o)
 .debug_ranges  0x0000000000000000       0x18 /home/lubuntu/Documents/libOpenCM3/libopencm3/lib/libopencm3_stm32l4.a(assert.o)
 .debug_macro   0x0000000000000000       0x89 /home/lubuntu/Documents/libOpenCM3/libopencm3/lib/libopencm3_stm32l4.a(assert.o)
 .debug_macro   0x0000000000000000      0xa6c /home/lubuntu/Documents/libOpenCM3/libopencm3/lib/libopencm3_stm32l4.a(assert.o)
 .debug_macro   0x0000000000000000       0x1c /home/lubuntu/Documents/libOpenCM3/libopencm3/lib/libopencm3_stm32l4.a(assert.o)
 .debug_macro   0x0000000000000000       0x22 /home/lubuntu/Documents/libOpenCM3/libopencm3/lib/libopencm3_stm32l4.a(assert.o)
 .debug_macro   0x0000000000000000       0x56 /home/lubuntu/Documents/libOpenCM3/libopencm3/lib/libopencm3_stm32l4.a(assert.o)
 .debug_macro   0x0000000000000000       0x51 /home/lubuntu/Documents/libOpenCM3/libopencm3/lib/libopencm3_stm32l4.a(assert.o)
 .debug_macro   0x0000000000000000      0x103 /home/lubuntu/Documents/libOpenCM3/libopencm3/lib/libopencm3_stm32l4.a(assert.o)
 .debug_macro   0x0000000000000000       0x6a /home/lubuntu/Documents/libOpenCM3/libopencm3/lib/libopencm3_stm32l4.a(assert.o)
 .debug_macro   0x0000000000000000      0x1df /home/lubuntu/Documents/libOpenCM3/libopencm3/lib/libopencm3_stm32l4.a(assert.o)
 .debug_macro   0x0000000000000000       0x22 /home/lubuntu/Documents/libOpenCM3/libopencm3/lib/libopencm3_stm32l4.a(assert.o)
 .debug_macro   0x0000000000000000       0xe8 /home/lubuntu/Documents/libOpenCM3/libopencm3/lib/libopencm3_stm32l4.a(assert.o)
 .debug_macro   0x0000000000000000       0x16 /home/lubuntu/Documents/libOpenCM3/libopencm3/lib/libopencm3_stm32l4.a(assert.o)
 .debug_line    0x0000000000000000      0x2a4 /home/lubuntu/Documents/libOpenCM3/libopencm3/lib/libopencm3_stm32l4.a(assert.o)
 .debug_str     0x0000000000000000     0x4020 /home/lubuntu/Documents/libOpenCM3/libopencm3/lib/libopencm3_stm32l4.a(assert.o)
 .comment       0x0000000000000000       0x4a /home/lubuntu/Documents/libOpenCM3/libopencm3/lib/libopencm3_stm32l4.a(assert.o)
 .debug_frame   0x0000000000000000       0x38 /home/lubuntu/Documents/libOpenCM3/libopencm3/lib/libopencm3_stm32l4.a(assert.o)
 .ARM.attributes
                0x0000000000000000       0x34 /home/lubuntu/Documents/libOpenCM3/libopencm3/lib/libopencm3_stm32l4.a(assert.o)

Memory Configuration

Name             Origin             Length             Attributes
rom              0x0000000008000000 0x000000000003e800 xr
ram              0x0000000020000000 0x0000000000028000 xrw
*default*        0x0000000000000000 0xffffffffffffffff

Linker script and memory map

LOAD Build/m2a.o
LOAD /home/lubuntu/Documents/ARMToolchain/gcc-arm-none-eabi-10.3-2021.10/bin/../lib/gcc/arm-none-eabi/10.3.1/../../../../arm-none-eabi/lib/thumb/v7e-m+fp/hard/libc_nano.a
LOAD /home/lubuntu/Documents/ARMToolchain/gcc-arm-none-eabi-10.3-2021.10/bin/../lib/gcc/arm-none-eabi/10.3.1/../../../../arm-none-eabi/lib/thumb/v7e-m+fp/hard/libm.a
LOAD /home/lubuntu/Documents/ARMToolchain/gcc-arm-none-eabi-10.3-2021.10/bin/../lib/gcc/arm-none-eabi/10.3.1/../../../../arm-none-eabi/lib/thumb/v7e-m+fp/hard/libnosys.a
LOAD /home/lubuntu/Documents/libOpenCM3/libopencm3/lib/libopencm3_stm32l4.a
START GROUP
LOAD /home/lubuntu/Documents/ARMToolchain/gcc-arm-none-eabi-10.3-2021.10/bin/../lib/gcc/arm-none-eabi/10.3.1/thumb/v7e-m+fp/hard/libgcc.a
LOAD /home/lubuntu/Documents/ARMToolchain/gcc-arm-none-eabi-10.3-2021.10/bin/../lib/gcc/arm-none-eabi/10.3.1/../../../../arm-none-eabi/lib/thumb/v7e-m+fp/hard/libc_nano.a
END GROUP
START GROUP
LOAD /home/lubuntu/Documents/ARMToolchain/gcc-arm-none-eabi-10.3-2021.10/bin/../lib/gcc/arm-none-eabi/10.3.1/thumb/v7e-m+fp/hard/libgcc.a
LOAD /home/lubuntu/Documents/ARMToolchain/gcc-arm-none-eabi-10.3-2021.10/bin/../lib/gcc/arm-none-eabi/10.3.1/../../../../arm-none-eabi/lib/thumb/v7e-m+fp/hard/libc_nano.a
LOAD /home/lubuntu/Documents/ARMToolchain/gcc-arm-none-eabi-10.3-2021.10/bin/../lib/gcc/arm-none-eabi/10.3.1/../../../../arm-none-eabi/lib/thumb/v7e-m+fp/hard/libnosys.a
END GROUP
START GROUP
LOAD /home/lubuntu/Documents/ARMToolchain/gcc-arm-none-eabi-10.3-2021.10/bin/../lib/gcc/arm-none-eabi/10.3.1/thumb/v7e-m+fp/hard/libgcc.a
LOAD /home/lubuntu/Documents/ARMToolchain/gcc-arm-none-eabi-10.3-2021.10/bin/../lib/gcc/arm-none-eabi/10.3.1/../../../../arm-none-eabi/lib/thumb/v7e-m+fp/hard/libc_nano.a
LOAD /home/lubuntu/Documents/ARMToolchain/gcc-arm-none-eabi-10.3-2021.10/bin/../lib/gcc/arm-none-eabi/10.3.1/../../../../arm-none-eabi/lib/thumb/v7e-m+fp/hard/libnosys.a
END GROUP

.text           0x0000000008000000     0x1d54
 *(.vectors)
 .vectors       0x0000000008000000      0x1ac /home/lubuntu/Documents/libOpenCM3/libopencm3/lib/libopencm3_stm32l4.a(vector.o)
                0x0000000008000000                vector_table
 *(.text*)
 .text.fn_advancePointer
                0x00000000080001ac       0x58 Build/m2a.o
 .text.fn_retreatPointer
                0x0000000008000204       0x34 Build/m2a.o
 .text.clock_setup
                0x0000000008000238       0x46 Build/m2a.o
                0x0000000008000238                clock_setup
 *fill*         0x000000000800027e        0x2 
 .text.usart_setup
                0x0000000008000280       0x60 Build/m2a.o
                0x0000000008000280                usart_setup
 .text.fn_circBuffReset
                0x00000000080002e0       0x28 Build/m2a.o
                0x00000000080002e0                fn_circBuffReset
 .text.fn_circBuffEmpty
                0x0000000008000308       0x34 Build/m2a.o
                0x0000000008000308                fn_circBuffEmpty
 .text.fn_circBuffInit
                0x000000000800033c       0x44 Build/m2a.o
                0x000000000800033c                fn_circBuffInit
 .text.fn_circBuffPut
                0x0000000008000380       0x30 Build/m2a.o
                0x0000000008000380                fn_circBuffPut
 .text.fn_circBuffGet
                0x00000000080003b0       0x60 Build/m2a.o
                0x00000000080003b0                fn_circBuffGet
 .text._write   0x0000000008000410       0x44 Build/m2a.o
                0x0000000008000410                _write
 .text.fn_convertToCaps
                0x0000000008000454       0x12 Build/m2a.o
                0x0000000008000454                fn_convertToCaps
 *fill*         0x0000000008000466        0x2 
 .text.fn_encryptText
                0x0000000008000468       0x4c Build/m2a.o
                0x0000000008000468                fn_encryptText
 .text.fn_decryptText
                0x00000000080004b4       0x4c Build/m2a.o
                0x00000000080004b4                fn_decryptText
 .text.setup_tim3
                0x0000000008000500       0x34 Build/m2a.o
                0x0000000008000500                setup_tim3
 .text.main     0x0000000008000534      0x140 Build/m2a.o
                0x0000000008000534                main
 .text.__assert_func
                0x0000000008000674       0x3c /home/lubuntu/Documents/ARMToolchain/gcc-arm-none-eabi-10.3-2021.10/bin/../lib/gcc/arm-none-eabi/10.3.1/../../../../arm-none-eabi/lib/thumb/v7e-m+fp/hard/libc_nano.a(lib_a-assert.o)
                0x0000000008000674                __assert_func
 .text.__errno  0x00000000080006b0        0xc /home/lubuntu/Documents/ARMToolchain/gcc-arm-none-eabi-10.3-2021.10/bin/../lib/gcc/arm-none-eabi/10.3.1/../../../../arm-none-eabi/lib/thumb/v7e-m+fp/hard/libc_nano.a(lib_a-errno.o)
                0x00000000080006b0                __errno
 .text.fprintf  0x00000000080006bc       0x24 /home/lubuntu/Documents/ARMToolchain/gcc-arm-none-eabi-10.3-2021.10/bin/../lib/gcc/arm-none-eabi/10.3.1/../../../../arm-none-eabi/lib/thumb/v7e-m+fp/hard/libc_nano.a(lib_a-fprintf.o)
                0x00000000080006bc                fprintf
                0x00000000080006bc                fiprintf
 .text.__sfputc_r
                0x00000000080006e0       0x2e /home/lubuntu/Documents/ARMToolchain/gcc-arm-none-eabi-10.3-2021.10/bin/../lib/gcc/arm-none-eabi/10.3.1/../../../../arm-none-eabi/lib/thumb/v7e-m+fp/hard/libc_nano.a(lib_a-nano-vfprintf.o)
 .text.__sfputs_r
                0x000000000800070e       0x24 /home/lubuntu/Documents/ARMToolchain/gcc-arm-none-eabi-10.3-2021.10/bin/../lib/gcc/arm-none-eabi/10.3.1/../../../../arm-none-eabi/lib/thumb/v7e-m+fp/hard/libc_nano.a(lib_a-nano-vfprintf.o)
                0x000000000800070e                __sfputs_r
 *fill*         0x0000000008000732        0x2 
 .text._vfprintf_r
                0x0000000008000734      0x260 /home/lubuntu/Documents/ARMToolchain/gcc-arm-none-eabi-10.3-2021.10/bin/../lib/gcc/arm-none-eabi/10.3.1/../../../../arm-none-eabi/lib/thumb/v7e-m+fp/hard/libc_nano.a(lib_a-nano-vfprintf.o)
                0x0000000008000734                _vfiprintf_r
                0x0000000008000734                _vfprintf_r
 .text._printf_common
                0x0000000008000994       0xda /home/lubuntu/Documents/ARMToolchain/gcc-arm-none-eabi-10.3-2021.10/bin/../lib/gcc/arm-none-eabi/10.3.1/../../../../arm-none-eabi/lib/thumb/v7e-m+fp/hard/libc_nano.a(lib_a-nano-vfprintf_i.o)
                0x0000000008000994                _printf_common
 *fill*         0x0000000008000a6e        0x2 
 .text._printf_i
                0x0000000008000a70      0x24c /home/lubuntu/Documents/ARMToolchain/gcc-arm-none-eabi-10.3-2021.10/bin/../lib/gcc/arm-none-eabi/10.3.1/../../../../arm-none-eabi/lib/thumb/v7e-m+fp/hard/libc_nano.a(lib_a-nano-vfprintf_i.o)
                0x0000000008000a70                _printf_i
 .text.printf   0x0000000008000cbc       0x30 /home/lubuntu/Documents/ARMToolchain/gcc-arm-none-eabi-10.3-2021.10/bin/../lib/gcc/arm-none-eabi/10.3.1/../../../../arm-none-eabi/lib/thumb/v7e-m+fp/hard/libc_nano.a(lib_a-printf.o)
                0x0000000008000cbc                printf
                0x0000000008000cbc                iprintf
 .text.__swbuf_r
                0x0000000008000cec       0xa4 /home/lubuntu/Documents/ARMToolchain/gcc-arm-none-eabi-10.3-2021.10/bin/../lib/gcc/arm-none-eabi/10.3.1/../../../../arm-none-eabi/lib/thumb/v7e-m+fp/hard/libc_nano.a(lib_a-wbuf.o)
                0x0000000008000cec                __swbuf_r
 .text.__swsetup_r
                0x0000000008000d90       0xdc /home/lubuntu/Documents/ARMToolchain/gcc-arm-none-eabi-10.3-2021.10/bin/../lib/gcc/arm-none-eabi/10.3.1/../../../../arm-none-eabi/lib/thumb/v7e-m+fp/hard/libc_nano.a(lib_a-wsetup.o)
                0x0000000008000d90                __swsetup_r
 .text.abort    0x0000000008000e6c        0xe /home/lubuntu/Documents/ARMToolchain/gcc-arm-none-eabi-10.3-2021.10/bin/../lib/gcc/arm-none-eabi/10.3.1/../../../../arm-none-eabi/lib/thumb/v7e-m+fp/hard/libc_nano.a(lib_a-abort.o)
                0x0000000008000e6c                abort
 *fill*         0x0000000008000e7a        0x2 
 .text.__sflush_r
                0x0000000008000e7c      0x10c /home/lubuntu/Documents/ARMToolchain/gcc-arm-none-eabi-10.3-2021.10/bin/../lib/gcc/arm-none-eabi/10.3.1/../../../../arm-none-eabi/lib/thumb/v7e-m+fp/hard/libc_nano.a(lib_a-fflush.o)
                0x0000000008000e7c                __sflush_r
 .text._fflush_r
                0x0000000008000f88       0x78 /home/lubuntu/Documents/ARMToolchain/gcc-arm-none-eabi-10.3-2021.10/bin/../lib/gcc/arm-none-eabi/10.3.1/../../../../arm-none-eabi/lib/thumb/v7e-m+fp/hard/libc_nano.a(lib_a-fflush.o)
                0x0000000008000f88                _fflush_r
 .text.std      0x0000000008001000       0x48 /home/lubuntu/Documents/ARMToolchain/gcc-arm-none-eabi-10.3-2021.10/bin/../lib/gcc/arm-none-eabi/10.3.1/../../../../arm-none-eabi/lib/thumb/v7e-m+fp/hard/libc_nano.a(lib_a-findfp.o)
 .text._cleanup_r
                0x0000000008001048        0xc /home/lubuntu/Documents/ARMToolchain/gcc-arm-none-eabi-10.3-2021.10/bin/../lib/gcc/arm-none-eabi/10.3.1/../../../../arm-none-eabi/lib/thumb/v7e-m+fp/hard/libc_nano.a(lib_a-findfp.o)
                0x0000000008001048                _cleanup_r
 .text.__sfmoreglue
                0x0000000008001054       0x2c /home/lubuntu/Documents/ARMToolchain/gcc-arm-none-eabi-10.3-2021.10/bin/../lib/gcc/arm-none-eabi/10.3.1/../../../../arm-none-eabi/lib/thumb/v7e-m+fp/hard/libc_nano.a(lib_a-findfp.o)
                0x0000000008001054                __sfmoreglue
 .text.__sfp_lock_acquire
                0x0000000008001080        0xc /home/lubuntu/Documents/ARMToolchain/gcc-arm-none-eabi-10.3-2021.10/bin/../lib/gcc/arm-none-eabi/10.3.1/../../../../arm-none-eabi/lib/thumb/v7e-m+fp/hard/libc_nano.a(lib_a-findfp.o)
                0x0000000008001080                __sfp_lock_acquire
 .text.__sfp_lock_release
                0x000000000800108c        0xc /home/lubuntu/Documents/ARMToolchain/gcc-arm-none-eabi-10.3-2021.10/bin/../lib/gcc/arm-none-eabi/10.3.1/../../../../arm-none-eabi/lib/thumb/v7e-m+fp/hard/libc_nano.a(lib_a-findfp.o)
                0x000000000800108c                __sfp_lock_release
 .text.__sinit_lock_acquire
                0x0000000008001098        0xc /home/lubuntu/Documents/ARMToolchain/gcc-arm-none-eabi-10.3-2021.10/bin/../lib/gcc/arm-none-eabi/10.3.1/../../../../arm-none-eabi/lib/thumb/v7e-m+fp/hard/libc_nano.a(lib_a-findfp.o)
                0x0000000008001098                __sinit_lock_acquire
 .text.__sinit_lock_release
                0x00000000080010a4        0xc /home/lubuntu/Documents/ARMToolchain/gcc-arm-none-eabi-10.3-2021.10/bin/../lib/gcc/arm-none-eabi/10.3.1/../../../../arm-none-eabi/lib/thumb/v7e-m+fp/hard/libc_nano.a(lib_a-findfp.o)
                0x00000000080010a4                __sinit_lock_release
 .text.__sinit  0x00000000080010b0       0x70 /home/lubuntu/Documents/ARMToolchain/gcc-arm-none-eabi-10.3-2021.10/bin/../lib/gcc/arm-none-eabi/10.3.1/../../../../arm-none-eabi/lib/thumb/v7e-m+fp/hard/libc_nano.a(lib_a-findfp.o)
                0x00000000080010b0                __sinit
 .text.__sfp    0x0000000008001120       0x8c /home/lubuntu/Documents/ARMToolchain/gcc-arm-none-eabi-10.3-2021.10/bin/../lib/gcc/arm-none-eabi/10.3.1/../../../../arm-none-eabi/lib/thumb/v7e-m+fp/hard/libc_nano.a(lib_a-findfp.o)
                0x0000000008001120                __sfp
 .text._fwalk_reent
                0x00000000080011ac       0x3e /home/lubuntu/Documents/ARMToolchain/gcc-arm-none-eabi-10.3-2021.10/bin/../lib/gcc/arm-none-eabi/10.3.1/../../../../arm-none-eabi/lib/thumb/v7e-m+fp/hard/libc_nano.a(lib_a-fwalk.o)
                0x00000000080011ac                _fwalk_reent
 .text.__retarget_lock_init_recursive
                0x00000000080011ea        0x2 /home/lubuntu/Documents/ARMToolchain/gcc-arm-none-eabi-10.3-2021.10/bin/../lib/gcc/arm-none-eabi/10.3.1/../../../../arm-none-eabi/lib/thumb/v7e-m+fp/hard/libc_nano.a(lib_a-lock.o)
                0x00000000080011ea                __retarget_lock_init_recursive
 .text.__retarget_lock_acquire_recursive
                0x00000000080011ec        0x2 /home/lubuntu/Documents/ARMToolchain/gcc-arm-none-eabi-10.3-2021.10/bin/../lib/gcc/arm-none-eabi/10.3.1/../../../../arm-none-eabi/lib/thumb/v7e-m+fp/hard/libc_nano.a(lib_a-lock.o)
                0x00000000080011ec                __retarget_lock_acquire_recursive
 .text.__retarget_lock_release_recursive
                0x00000000080011ee        0x2 /home/lubuntu/Documents/ARMToolchain/gcc-arm-none-eabi-10.3-2021.10/bin/../lib/gcc/arm-none-eabi/10.3.1/../../../../arm-none-eabi/lib/thumb/v7e-m+fp/hard/libc_nano.a(lib_a-lock.o)
                0x00000000080011ee                __retarget_lock_release_recursive
 .text.__swhatbuf_r
                0x00000000080011f0       0x4a /home/lubuntu/Documents/ARMToolchain/gcc-arm-none-eabi-10.3-2021.10/bin/../lib/gcc/arm-none-eabi/10.3.1/../../../../arm-none-eabi/lib/thumb/v7e-m+fp/hard/libc_nano.a(lib_a-makebuf.o)
                0x00000000080011f0                __swhatbuf_r
 *fill*         0x000000000800123a        0x2 
 .text.__smakebuf_r
                0x000000000800123c       0x80 /home/lubuntu/Documents/ARMToolchain/gcc-arm-none-eabi-10.3-2021.10/bin/../lib/gcc/arm-none-eabi/10.3.1/../../../../arm-none-eabi/lib/thumb/v7e-m+fp/hard/libc_nano.a(lib_a-makebuf.o)
                0x000000000800123c                __smakebuf_r
 *fill*         0x00000000080012bc        0x4 
 .text          0x00000000080012c0       0xa0 /home/lubuntu/Documents/ARMToolchain/gcc-arm-none-eabi-10.3-2021.10/bin/../lib/gcc/arm-none-eabi/10.3.1/../../../../arm-none-eabi/lib/thumb/v7e-m+fp/hard/libc_nano.a(lib_a-memchr.o)
                0x00000000080012c0                memchr
 .text.memset   0x0000000008001360       0x10 /home/lubuntu/Documents/ARMToolchain/gcc-arm-none-eabi-10.3-2021.10/bin/../lib/gcc/arm-none-eabi/10.3.1/../../../../arm-none-eabi/lib/thumb/v7e-m+fp/hard/libc_nano.a(lib_a-memset.o)
                0x0000000008001360                memset
 .text._free_r  0x0000000008001370       0x98 /home/lubuntu/Documents/ARMToolchain/gcc-arm-none-eabi-10.3-2021.10/bin/../lib/gcc/arm-none-eabi/10.3.1/../../../../arm-none-eabi/lib/thumb/v7e-m+fp/hard/libc_nano.a(lib_a-nano-freer.o)
                0x0000000008001370                _free_r
 .text.sbrk_aligned
                0x0000000008001408       0x40 /home/lubuntu/Documents/ARMToolchain/gcc-arm-none-eabi-10.3-2021.10/bin/../lib/gcc/arm-none-eabi/10.3.1/../../../../arm-none-eabi/lib/thumb/v7e-m+fp/hard/libc_nano.a(lib_a-nano-mallocr.o)
 .text._malloc_r
                0x0000000008001448       0xe8 /home/lubuntu/Documents/ARMToolchain/gcc-arm-none-eabi-10.3-2021.10/bin/../lib/gcc/arm-none-eabi/10.3.1/../../../../arm-none-eabi/lib/thumb/v7e-m+fp/hard/libc_nano.a(lib_a-nano-mallocr.o)
                0x0000000008001448                _malloc_r
 .text._sbrk_r  0x0000000008001530       0x20 /home/lubuntu/Documents/ARMToolchain/gcc-arm-none-eabi-10.3-2021.10/bin/../lib/gcc/arm-none-eabi/10.3.1/../../../../arm-none-eabi/lib/thumb/v7e-m+fp/hard/libc_nano.a(lib_a-sbrkr.o)
                0x0000000008001530                _sbrk_r
 .text._raise_r
                0x0000000008001550       0x50 /home/lubuntu/Documents/ARMToolchain/gcc-arm-none-eabi-10.3-2021.10/bin/../lib/gcc/arm-none-eabi/10.3.1/../../../../arm-none-eabi/lib/thumb/v7e-m+fp/hard/libc_nano.a(lib_a-signal.o)
                0x0000000008001550                _raise_r
 .text.raise    0x00000000080015a0       0x10 /home/lubuntu/Documents/ARMToolchain/gcc-arm-none-eabi-10.3-2021.10/bin/../lib/gcc/arm-none-eabi/10.3.1/../../../../arm-none-eabi/lib/thumb/v7e-m+fp/hard/libc_nano.a(lib_a-signal.o)
                0x00000000080015a0                raise
 .text._kill_r  0x00000000080015b0       0x24 /home/lubuntu/Documents/ARMToolchain/gcc-arm-none-eabi-10.3-2021.10/bin/../lib/gcc/arm-none-eabi/10.3.1/../../../../arm-none-eabi/lib/thumb/v7e-m+fp/hard/libc_nano.a(lib_a-signalr.o)
                0x00000000080015b0                _kill_r
 .text._getpid_r
                0x00000000080015d4        0x4 /home/lubuntu/Documents/ARMToolchain/gcc-arm-none-eabi-10.3-2021.10/bin/../lib/gcc/arm-none-eabi/10.3.1/../../../../arm-none-eabi/lib/thumb/v7e-m+fp/hard/libc_nano.a(lib_a-signalr.o)
                0x00000000080015d4                _getpid_r
 .text.__sread  0x00000000080015d8       0x22 /home/lubuntu/Documents/ARMToolchain/gcc-arm-none-eabi-10.3-2021.10/bin/../lib/gcc/arm-none-eabi/10.3.1/../../../../arm-none-eabi/lib/thumb/v7e-m+fp/hard/libc_nano.a(lib_a-stdio.o)
                0x00000000080015d8                __sread
 .text.__swrite
                0x00000000080015fa       0x38 /home/lubuntu/Documents/ARMToolchain/gcc-arm-none-eabi-10.3-2021.10/bin/../lib/gcc/arm-none-eabi/10.3.1/../../../../arm-none-eabi/lib/thumb/v7e-m+fp/hard/libc_nano.a(lib_a-stdio.o)
                0x00000000080015fa                __swrite
 .text.__sseek  0x0000000008001632       0x24 /home/lubuntu/Documents/ARMToolchain/gcc-arm-none-eabi-10.3-2021.10/bin/../lib/gcc/arm-none-eabi/10.3.1/../../../../arm-none-eabi/lib/thumb/v7e-m+fp/hard/libc_nano.a(lib_a-stdio.o)
                0x0000000008001632                __sseek
 .text.__sclose
                0x0000000008001656        0x8 /home/lubuntu/Documents/ARMToolchain/gcc-arm-none-eabi-10.3-2021.10/bin/../lib/gcc/arm-none-eabi/10.3.1/../../../../arm-none-eabi/lib/thumb/v7e-m+fp/hard/libc_nano.a(lib_a-stdio.o)
                0x0000000008001656                __sclose
 *fill*         0x000000000800165e        0x2 
 .text._write_r
                0x0000000008001660       0x24 /home/lubuntu/Documents/ARMToolchain/gcc-arm-none-eabi-10.3-2021.10/bin/../lib/gcc/arm-none-eabi/10.3.1/../../../../arm-none-eabi/lib/thumb/v7e-m+fp/hard/libc_nano.a(lib_a-writer.o)
                0x0000000008001660                _write_r
 .text._close_r
                0x0000000008001684       0x20 /home/lubuntu/Documents/ARMToolchain/gcc-arm-none-eabi-10.3-2021.10/bin/../lib/gcc/arm-none-eabi/10.3.1/../../../../arm-none-eabi/lib/thumb/v7e-m+fp/hard/libc_nano.a(lib_a-closer.o)
                0x0000000008001684                _close_r
 .text._fstat_r
                0x00000000080016a4       0x24 /home/lubuntu/Documents/ARMToolchain/gcc-arm-none-eabi-10.3-2021.10/bin/../lib/gcc/arm-none-eabi/10.3.1/../../../../arm-none-eabi/lib/thumb/v7e-m+fp/hard/libc_nano.a(lib_a-fstatr.o)
                0x00000000080016a4                _fstat_r
 .text._isatty_r
                0x00000000080016c8       0x20 /home/lubuntu/Documents/ARMToolchain/gcc-arm-none-eabi-10.3-2021.10/bin/../lib/gcc/arm-none-eabi/10.3.1/../../../../arm-none-eabi/lib/thumb/v7e-m+fp/hard/libc_nano.a(lib_a-isattyr.o)
                0x00000000080016c8                _isatty_r
 .text._lseek_r
                0x00000000080016e8       0x24 /home/lubuntu/Documents/ARMToolchain/gcc-arm-none-eabi-10.3-2021.10/bin/../lib/gcc/arm-none-eabi/10.3.1/../../../../arm-none-eabi/lib/thumb/v7e-m+fp/hard/libc_nano.a(lib_a-lseekr.o)
                0x00000000080016e8                _lseek_r
 .text.__malloc_lock
                0x000000000800170c        0xc /home/lubuntu/Documents/ARMToolchain/gcc-arm-none-eabi-10.3-2021.10/bin/../lib/gcc/arm-none-eabi/10.3.1/../../../../arm-none-eabi/lib/thumb/v7e-m+fp/hard/libc_nano.a(lib_a-mlock.o)
                0x000000000800170c                __malloc_lock
 .text.__malloc_unlock
                0x0000000008001718        0xc /home/lubuntu/Documents/ARMToolchain/gcc-arm-none-eabi-10.3-2021.10/bin/../lib/gcc/arm-none-eabi/10.3.1/../../../../arm-none-eabi/lib/thumb/v7e-m+fp/hard/libc_nano.a(lib_a-mlock.o)
                0x0000000008001718                __malloc_unlock
 .text._read_r  0x0000000008001724       0x24 /home/lubuntu/Documents/ARMToolchain/gcc-arm-none-eabi-10.3-2021.10/bin/../lib/gcc/arm-none-eabi/10.3.1/../../../../arm-none-eabi/lib/thumb/v7e-m+fp/hard/libc_nano.a(lib_a-readr.o)
                0x0000000008001724                _read_r
 .text._close   0x0000000008001748       0x10 /home/lubuntu/Documents/ARMToolchain/gcc-arm-none-eabi-10.3-2021.10/bin/../lib/gcc/arm-none-eabi/10.3.1/../../../../arm-none-eabi/lib/thumb/v7e-m+fp/hard/libnosys.a(close.o)
                0x0000000008001748                _close
 .text._fstat   0x0000000008001758       0x10 /home/lubuntu/Documents/ARMToolchain/gcc-arm-none-eabi-10.3-2021.10/bin/../lib/gcc/arm-none-eabi/10.3.1/../../../../arm-none-eabi/lib/thumb/v7e-m+fp/hard/libnosys.a(fstat.o)
                0x0000000008001758                _fstat
 .text._getpid  0x0000000008001768       0x10 /home/lubuntu/Documents/ARMToolchain/gcc-arm-none-eabi-10.3-2021.10/bin/../lib/gcc/arm-none-eabi/10.3.1/../../../../arm-none-eabi/lib/thumb/v7e-m+fp/hard/libnosys.a(getpid.o)
                0x0000000008001768                _getpid
 .text._isatty  0x0000000008001778       0x10 /home/lubuntu/Documents/ARMToolchain/gcc-arm-none-eabi-10.3-2021.10/bin/../lib/gcc/arm-none-eabi/10.3.1/../../../../arm-none-eabi/lib/thumb/v7e-m+fp/hard/libnosys.a(isatty.o)
                0x0000000008001778                _isatty
 .text._kill    0x0000000008001788       0x10 /home/lubuntu/Documents/ARMToolchain/gcc-arm-none-eabi-10.3-2021.10/bin/../lib/gcc/arm-none-eabi/10.3.1/../../../../arm-none-eabi/lib/thumb/v7e-m+fp/hard/libnosys.a(kill.o)
                0x0000000008001788                _kill
 .text._lseek   0x0000000008001798       0x10 /home/lubuntu/Documents/ARMToolchain/gcc-arm-none-eabi-10.3-2021.10/bin/../lib/gcc/arm-none-eabi/10.3.1/../../../../arm-none-eabi/lib/thumb/v7e-m+fp/hard/libnosys.a(lseek.o)
                0x0000000008001798                _lseek
 .text._read    0x00000000080017a8       0x10 /home/lubuntu/Documents/ARMToolchain/gcc-arm-none-eabi-10.3-2021.10/bin/../lib/gcc/arm-none-eabi/10.3.1/../../../../arm-none-eabi/lib/thumb/v7e-m+fp/hard/libnosys.a(read.o)
                0x00000000080017a8                _read
 .text._sbrk    0x00000000080017b8       0x1c /home/lubuntu/Documents/ARMToolchain/gcc-arm-none-eabi-10.3-2021.10/bin/../lib/gcc/arm-none-eabi/10.3.1/../../../../arm-none-eabi/lib/thumb/v7e-m+fp/hard/libnosys.a(sbrk.o)
                0x00000000080017b8                _sbrk
 .text._exit    0x00000000080017d4        0x4 /home/lubuntu/Documents/ARMToolchain/gcc-arm-none-eabi-10.3-2021.10/bin/../lib/gcc/arm-none-eabi/10.3.1/../../../../arm-none-eabi/lib/thumb/v7e-m+fp/hard/libnosys.a(_exit.o)
                0x00000000080017d4                _exit
 .text.gpio_clear
                0x00000000080017d8        0x6 /home/lubuntu/Documents/libOpenCM3/libopencm3/lib/libopencm3_stm32l4.a(gpio_common_all.o)
                0x00000000080017d8                gpio_clear
 .text.gpio_get
                0x00000000080017de        0x6 /home/lubuntu/Documents/libOpenCM3/libopencm3/lib/libopencm3_stm32l4.a(gpio_common_all.o)
                0x00000000080017de                gpio_get
 .text.gpio_toggle
                0x00000000080017e4       0x12 /home/lubuntu/Documents/libOpenCM3/libopencm3/lib/libopencm3_stm32l4.a(gpio_common_all.o)
                0x00000000080017e4                gpio_toggle
 .text.gpio_mode_setup
                0x00000000080017f6       0x40 /home/lubuntu/Documents/libOpenCM3/libopencm3/lib/libopencm3_stm32l4.a(gpio_common_f0234.o)
                0x00000000080017f6                gpio_mode_setup
 .text.gpio_set_af
                0x0000000008001836       0x58 /home/lubuntu/Documents/libOpenCM3/libopencm3/lib/libopencm3_stm32l4.a(gpio_common_f0234.o)
                0x0000000008001836                gpio_set_af
 *fill*         0x000000000800188e        0x2 
 .text.rcc_osc_on
                0x0000000008001890       0x70 /home/lubuntu/Documents/libOpenCM3/libopencm3/lib/libopencm3_stm32l4.a(rcc.o)
                0x0000000008001890                rcc_osc_on
 .text.rcc_set_main_pll
                0x0000000008001900       0x28 /home/lubuntu/Documents/libOpenCM3/libopencm3/lib/libopencm3_stm32l4.a(rcc.o)
                0x0000000008001900                rcc_set_main_pll
 .text.rcc_periph_clock_enable
                0x0000000008001928       0x1c /home/lubuntu/Documents/libOpenCM3/libopencm3/lib/libopencm3_stm32l4.a(rcc_common_all.o)
                0x0000000008001928                rcc_periph_clock_enable
 .text.rcc_periph_reset_pulse
                0x0000000008001944       0x24 /home/lubuntu/Documents/libOpenCM3/libopencm3/lib/libopencm3_stm32l4.a(rcc_common_all.o)
                0x0000000008001944                rcc_periph_reset_pulse
 .text.timer_enable_irq
                0x0000000008001968        0x8 /home/lubuntu/Documents/libOpenCM3/libopencm3/lib/libopencm3_stm32l4.a(timer_common_all.o)
                0x0000000008001968                timer_enable_irq
 .text.timer_get_flag
                0x0000000008001970        0xc /home/lubuntu/Documents/libOpenCM3/libopencm3/lib/libopencm3_stm32l4.a(timer_common_all.o)
                0x0000000008001970                timer_get_flag
 .text.timer_clear_flag
                0x000000000800197c        0x6 /home/lubuntu/Documents/libOpenCM3/libopencm3/lib/libopencm3_stm32l4.a(timer_common_all.o)
                0x000000000800197c                timer_clear_flag
 .text.timer_enable_counter
                0x0000000008001982        0xa /home/lubuntu/Documents/libOpenCM3/libopencm3/lib/libopencm3_stm32l4.a(timer_common_all.o)
                0x0000000008001982                timer_enable_counter
 .text.timer_set_prescaler
                0x000000000800198c        0x4 /home/lubuntu/Documents/libOpenCM3/libopencm3/lib/libopencm3_stm32l4.a(timer_common_all.o)
                0x000000000800198c                timer_set_prescaler
 .text.timer_set_period
                0x0000000008001990        0x4 /home/lubuntu/Documents/libOpenCM3/libopencm3/lib/libopencm3_stm32l4.a(timer_common_all.o)
                0x0000000008001990                timer_set_period
 .text.usart_set_baudrate
                0x0000000008001994       0x4c /home/lubuntu/Documents/libOpenCM3/libopencm3/lib/libopencm3_stm32l4.a(usart_common_all.o)
                0x0000000008001994                usart_set_baudrate
 .text.usart_set_databits
                0x00000000080019e0       0x12 /home/lubuntu/Documents/libOpenCM3/libopencm3/lib/libopencm3_stm32l4.a(usart_common_all.o)
                0x00000000080019e0                usart_set_databits
 .text.usart_set_stopbits
                0x00000000080019f2        0xc /home/lubuntu/Documents/libOpenCM3/libopencm3/lib/libopencm3_stm32l4.a(usart_common_all.o)
                0x00000000080019f2                usart_set_stopbits
 .text.usart_set_parity
                0x00000000080019fe        0xc /home/lubuntu/Documents/libOpenCM3/libopencm3/lib/libopencm3_stm32l4.a(usart_common_all.o)
                0x00000000080019fe                usart_set_parity
 .text.usart_set_mode
                0x0000000008001a0a        0xc /home/lubuntu/Documents/libOpenCM3/libopencm3/lib/libopencm3_stm32l4.a(usart_common_all.o)
                0x0000000008001a0a                usart_set_mode
 .text.usart_set_flow_control
                0x0000000008001a16        0xc /home/lubuntu/Documents/libOpenCM3/libopencm3/lib/libopencm3_stm32l4.a(usart_common_all.o)
                0x0000000008001a16                usart_set_flow_control
 .text.usart_enable
                0x0000000008001a22        0xa /home/lubuntu/Documents/libOpenCM3/libopencm3/lib/libopencm3_stm32l4.a(usart_common_all.o)
                0x0000000008001a22                usart_enable
 .text.usart_send_blocking
                0x0000000008001a2c       0x18 /home/lubuntu/Documents/libOpenCM3/libopencm3/lib/libopencm3_stm32l4.a(usart_common_all.o)
                0x0000000008001a2c                usart_send_blocking
 .text.usart_recv_blocking
                0x0000000008001a44       0x12 /home/lubuntu/Documents/libOpenCM3/libopencm3/lib/libopencm3_stm32l4.a(usart_common_all.o)
                0x0000000008001a44                usart_recv_blocking
 .text.usart_send
                0x0000000008001a56        0x8 /home/lubuntu/Documents/libOpenCM3/libopencm3/lib/libopencm3_stm32l4.a(usart_common_v2.o)
                0x0000000008001a56                usart_send
 .text.usart_recv
                0x0000000008001a5e        0x8 /home/lubuntu/Documents/libOpenCM3/libopencm3/lib/libopencm3_stm32l4.a(usart_common_v2.o)
                0x0000000008001a5e                usart_recv
 .text.usart_wait_send_ready
                0x0000000008001a66        0x8 /home/lubuntu/Documents/libOpenCM3/libopencm3/lib/libopencm3_stm32l4.a(usart_common_v2.o)
                0x0000000008001a66                usart_wait_send_ready
 .text.usart_wait_recv_ready
                0x0000000008001a6e        0x8 /home/lubuntu/Documents/libOpenCM3/libopencm3/lib/libopencm3_stm32l4.a(usart_common_v2.o)
                0x0000000008001a6e                usart_wait_recv_ready
 .text.usart_get_flag
                0x0000000008001a76        0xc /home/lubuntu/Documents/libOpenCM3/libopencm3/lib/libopencm3_stm32l4.a(usart_common_v2.o)
                0x0000000008001a76                usart_get_flag
 .text.blocking_handler
                0x0000000008001a82        0x2 /home/lubuntu/Documents/libOpenCM3/libopencm3/lib/libopencm3_stm32l4.a(vector.o)
                0x0000000008001a82                i2c4_ev_isr
                0x0000000008001a82                usart3_isr
                0x0000000008001a82                swpmi1_isr
                0x0000000008001a82                tim7_isr
                0x0000000008001a82                dma2d_isr
                0x0000000008001a82                rng_isr
                0x0000000008001a82                adc1_2_isr
                0x0000000008001a82                i2c4_er_isr
                0x0000000008001a82                blocking_handler
                0x0000000008001a82                tsc_isr
                0x0000000008001a82                tim5_isr
                0x0000000008001a82                rtc_wkup_isr
                0x0000000008001a82                otg_fs_isr
                0x0000000008001a82                tim1_up_tim16_isr
                0x0000000008001a82                spi1_isr
                0x0000000008001a82                i2c3_er_isr
                0x0000000008001a82                dma2_channel7_isr
                0x0000000008001a82                exti2_isr
                0x0000000008001a82                dma1_channel6_isr
                0x0000000008001a82                dma1_channel5_isr
                0x0000000008001a82                dma2_channel5_isr
                0x0000000008001a82                tamp_stamp_isr
                0x0000000008001a82                fmc_isr
                0x0000000008001a82                can1_rx1_isr
                0x0000000008001a82                usart1_isr
                0x0000000008001a82                i2c3_ev_isr
                0x0000000008001a82                usage_fault_handler
                0x0000000008001a82                tim8_trg_com_isr
                0x0000000008001a82                can2_rx0_isr
                0x0000000008001a82                tim1_trg_com_tim17_isr
                0x0000000008001a82                can2_rx1_isr
                0x0000000008001a82                can1_sce_isr
                0x0000000008001a82                tim1_cc_isr
                0x0000000008001a82                can1_tx_isr
                0x0000000008001a82                dma1_channel4_isr
                0x0000000008001a82                tim8_brk_isr
                0x0000000008001a82                dma2_channel4_isr
                0x0000000008001a82                lptim1_isr
                0x0000000008001a82                lpuart1_isr
                0x0000000008001a82                can1_rx0_isr
                0x0000000008001a82                rcc_isr
                0x0000000008001a82                flash_isr
                0x0000000008001a82                uart4_isr
                0x0000000008001a82                rtc_alarm_isr
                0x0000000008001a82                exti15_10_isr
                0x0000000008001a82                hard_fault_handler
                0x0000000008001a82                exti1_isr
                0x0000000008001a82                i2c1_ev_isr
                0x0000000008001a82                dma2_channel1_isr
                0x0000000008001a82                dfsdm2_isr
                0x0000000008001a82                spi2_isr
                0x0000000008001a82                aes_isr
                0x0000000008001a82                tim8_up_isr
                0x0000000008001a82                tim6_dacunder_isr
                0x0000000008001a82                dma2_channel6_isr
                0x0000000008001a82                dma2_channel2_isr
                0x0000000008001a82                exti3_isr
                0x0000000008001a82                adc3_isr
                0x0000000008001a82                tim3_isr
                0x0000000008001a82                usart2_isr
                0x0000000008001a82                sai1_isr
                0x0000000008001a82                fpu_isr
                0x0000000008001a82                i2c2_er_isr
                0x0000000008001a82                i2c2_ev_isr
                0x0000000008001a82                uart5_isr
                0x0000000008001a82                dma1_channel1_isr
                0x0000000008001a82                exti4_isr
                0x0000000008001a82                dfsdm3_isr
                0x0000000008001a82                comp_isr
                0x0000000008001a82                mem_manage_handler
                0x0000000008001a82                can2_tx_isr
                0x0000000008001a82                lptim2_isr
                0x0000000008001a82                lcd_isr
                0x0000000008001a82                exti9_5_isr
                0x0000000008001a82                dma2_channel3_isr
                0x0000000008001a82                dfsdm1_isr
                0x0000000008001a82                dma1_channel7_isr
                0x0000000008001a82                pvd_pvm_isr
                0x0000000008001a82                can2_sce_isr
                0x0000000008001a82                tim4_isr
                0x0000000008001a82                sai2_isr
                0x0000000008001a82                dma1_channel2_isr
                0x0000000008001a82                i2c1_er_isr
                0x0000000008001a82                tim8_cc_isr
                0x0000000008001a82                dcmi_isr
                0x0000000008001a82                hash_crs_isr
                0x0000000008001a82                bus_fault_handler
                0x0000000008001a82                wwdg_isr
                0x0000000008001a82                tim1_brk_tim15_isr
                0x0000000008001a82                dma1_channel3_isr
                0x0000000008001a82                sdmmc1_isr
                0x0000000008001a82                spi3_isr
                0x0000000008001a82                quadspi_isr
                0x0000000008001a82                dfsdm0_isr
                0x0000000008001a82                tim2_isr
                0x0000000008001a82                exti0_isr
 .text.null_handler
                0x0000000008001a84        0x2 /home/lubuntu/Documents/libOpenCM3/libopencm3/lib/libopencm3_stm32l4.a(vector.o)
                0x0000000008001a84                null_handler
                0x0000000008001a84                sv_call_handler
                0x0000000008001a84                pend_sv_handler
                0x0000000008001a84                debug_monitor_handler
                0x0000000008001a84                sys_tick_handler
                0x0000000008001a84                nmi_handler
 *fill*         0x0000000008001a86        0x2 
 .text.reset_handler
                0x0000000008001a88       0xa0 /home/lubuntu/Documents/libOpenCM3/libopencm3/lib/libopencm3_stm32l4.a(vector.o)
                0x0000000008001a88                reset_handler
                0x0000000008001b28                . = ALIGN (0x4)
 *(.rodata*)
 .rodata.fn_advancePointer.str1.4
                0x0000000008001b28       0x20 Build/m2a.o
 .rodata.fn_circBuffInit.str1.4
                0x0000000008001b48       0x35 Build/m2a.o
 *fill*         0x0000000008001b7d        0x3 
 .rodata.fn_circBuffPut.str1.4
                0x0000000008001b80       0x1c Build/m2a.o
 .rodata.fn_circBuffGet.str1.4
                0x0000000008001b9c       0x1a Build/m2a.o
 *fill*         0x0000000008001bb6        0x2 
 .rodata.main.str1.4
                0x0000000008001bb8       0x36 Build/m2a.o
 *fill*         0x0000000008001bee        0x2 
 .rodata.__func__.12
                0x0000000008001bf0       0x10 Build/m2a.o
 .rodata.__func__.13
                0x0000000008001c00       0x11 Build/m2a.o
 *fill*         0x0000000008001c11        0x3 
 .rodata.__func__.14
                0x0000000008001c14       0x11 Build/m2a.o
 *fill*         0x0000000008001c25        0x3 
 .rodata.__func__.5
                0x0000000008001c28       0x12 Build/m2a.o
 *fill*         0x0000000008001c3a        0x2 
 .rodata.__func__.6
                0x0000000008001c3c        0xf Build/m2a.o
 *fill*         0x0000000008001c4b        0x1 
 .rodata.__func__.7
                0x0000000008001c4c       0x12 Build/m2a.o
 *fill*         0x0000000008001c5e        0x2 
 .rodata.__func__.8
                0x0000000008001c60        0xf Build/m2a.o
 *fill*         0x0000000008001c6f        0x1 
 .rodata.ac_CIPHER
                0x0000000008001c70        0xd Build/m2a.o
                0x0000000008001c70                ac_CIPHER
 .rodata.__assert_func.str1.1
                0x0000000008001c7d       0x3c /home/lubuntu/Documents/ARMToolchain/gcc-arm-none-eabi-10.3-2021.10/bin/../lib/gcc/arm-none-eabi/10.3.1/../../../../arm-none-eabi/lib/thumb/v7e-m+fp/hard/libc_nano.a(lib_a-assert.o)
                                         0x3d (size before relaxing)
 *fill*         0x0000000008001cb9        0x3 
 .rodata._global_impure_ptr
                0x0000000008001cbc        0x4 /home/lubuntu/Documents/ARMToolchain/gcc-arm-none-eabi-10.3-2021.10/bin/../lib/gcc/arm-none-eabi/10.3.1/../../../../arm-none-eabi/lib/thumb/v7e-m+fp/hard/libc_nano.a(lib_a-impure.o)
                0x0000000008001cbc                _global_impure_ptr
 .rodata._vfprintf_r.str1.1
                0x0000000008001cc0       0x11 /home/lubuntu/Documents/ARMToolchain/gcc-arm-none-eabi-10.3-2021.10/bin/../lib/gcc/arm-none-eabi/10.3.1/../../../../arm-none-eabi/lib/thumb/v7e-m+fp/hard/libc_nano.a(lib_a-nano-vfprintf.o)
 .rodata._printf_i.str1.1
                0x0000000008001cd1       0x22 /home/lubuntu/Documents/ARMToolchain/gcc-arm-none-eabi-10.3-2021.10/bin/../lib/gcc/arm-none-eabi/10.3.1/../../../../arm-none-eabi/lib/thumb/v7e-m+fp/hard/libc_nano.a(lib_a-nano-vfprintf_i.o)
 *fill*         0x0000000008001cf3        0x1 
 .rodata.__sf_fake_stderr
                0x0000000008001cf4       0x20 /home/lubuntu/Documents/ARMToolchain/gcc-arm-none-eabi-10.3-2021.10/bin/../lib/gcc/arm-none-eabi/10.3.1/../../../../arm-none-eabi/lib/thumb/v7e-m+fp/hard/libc_nano.a(lib_a-findfp.o)
                0x0000000008001cf4                __sf_fake_stderr
 .rodata.__sf_fake_stdin
                0x0000000008001d14       0x20 /home/lubuntu/Documents/ARMToolchain/gcc-arm-none-eabi-10.3-2021.10/bin/../lib/gcc/arm-none-eabi/10.3.1/../../../../arm-none-eabi/lib/thumb/v7e-m+fp/hard/libc_nano.a(lib_a-findfp.o)
                0x0000000008001d14                __sf_fake_stdin
 .rodata.__sf_fake_stdout
                0x0000000008001d34       0x20 /home/lubuntu/Documents/ARMToolchain/gcc-arm-none-eabi-10.3-2021.10/bin/../lib/gcc/arm-none-eabi/10.3.1/../../../../arm-none-eabi/lib/thumb/v7e-m+fp/hard/libc_nano.a(lib_a-findfp.o)
                0x0000000008001d34                __sf_fake_stdout
                0x0000000008001d54                . = ALIGN (0x4)

.glue_7         0x0000000008001d54        0x0
 .glue_7        0x0000000008001d54        0x0 linker stubs

.glue_7t        0x0000000008001d54        0x0
 .glue_7t       0x0000000008001d54        0x0 linker stubs

.vfp11_veneer   0x0000000008001d54        0x0
 .vfp11_veneer  0x0000000008001d54        0x0 linker stubs

.v4_bx          0x0000000008001d54        0x0
 .v4_bx         0x0000000008001d54        0x0 linker stubs

.iplt           0x0000000008001d54        0x0
 .iplt          0x0000000008001d54        0x0 Build/m2a.o

.rel.dyn        0x0000000008001d54        0x0
 .rel.iplt      0x0000000008001d54        0x0 Build/m2a.o

.preinit_array  0x0000000008001d54        0x0
                0x0000000008001d54                . = ALIGN (0x4)
                0x0000000008001d54                __preinit_array_start = .
 *(.preinit_array)
                0x0000000008001d54                __preinit_array_end = .

.init_array     0x0000000008001d54        0x0
                0x0000000008001d54                . = ALIGN (0x4)
                0x0000000008001d54                __init_array_start = .
 *(SORT_BY_NAME(.init_array.*))
 *(.init_array)
                0x0000000008001d54                __init_array_end = .

.fini_array     0x0000000008001d54        0x0
                0x0000000008001d54                . = ALIGN (0x4)
                0x0000000008001d54                __fini_array_start = .
 *(.fini_array)
 *(SORT_BY_NAME(.fini_array.*))
                0x0000000008001d54                __fini_array_end = .

.ARM.extab
 *(.ARM.extab*)

.ARM.exidx      0x0000000008001d54        0x0
                0x0000000008001d54                __exidx_start = .
 *(.ARM.exidx*)
                0x0000000008001d54                __exidx_end = .
                0x0000000008001d54                . = ALIGN (0x4)
                0x0000000008001d54                _etext = .

.noinit
 *(.noinit*)
                0x0000000008001d54                . = ALIGN (0x4)

.data           0x0000000020000000       0x6c load address 0x0000000008001d54
                0x0000000020000000                _data = .
 *(.data*)
 .data._impure_ptr
                0x0000000020000000        0x4 /home/lubuntu/Documents/ARMToolchain/gcc-arm-none-eabi-10.3-2021.10/bin/../lib/gcc/arm-none-eabi/10.3.1/../../../../arm-none-eabi/lib/thumb/v7e-m+fp/hard/libc_nano.a(lib_a-impure.o)
                0x0000000020000000                _impure_ptr
 .data.impure_data
                0x0000000020000004       0x60 /home/lubuntu/Documents/ARMToolchain/gcc-arm-none-eabi-10.3-2021.10/bin/../lib/gcc/arm-none-eabi/10.3.1/../../../../arm-none-eabi/lib/thumb/v7e-m+fp/hard/libc_nano.a(lib_a-impure.o)
 .data.rcc_apb1_frequency
                0x0000000020000064        0x4 /home/lubuntu/Documents/libOpenCM3/libopencm3/lib/libopencm3_stm32l4.a(rcc.o)
                0x0000000020000064                rcc_apb1_frequency
 .data.rcc_apb2_frequency
                0x0000000020000068        0x4 /home/lubuntu/Documents/libOpenCM3/libopencm3/lib/libopencm3_stm32l4.a(rcc.o)
                0x0000000020000068                rcc_apb2_frequency
 *(.ramtext*)
                0x000000002000006c                . = ALIGN (0x4)
                0x000000002000006c                _edata = .
                0x0000000008001d54                _data_loadaddr = LOADADDR (.data)

.igot.plt       0x000000002000006c        0x0 load address 0x0000000008001dc0
 .igot.plt      0x000000002000006c        0x0 Build/m2a.o

.bss            0x000000002000006c      0x12c load address 0x0000000008001dc0
 *(.bss*)
 .bss.buffer.2  0x000000002000006c      0x100 Build/m2a.o
 .bss.st_circularBuffer.3
                0x000000002000016c       0x14 Build/m2a.o
 .bss.u8_cipherDPosition.0
                0x0000000020000180        0x1 Build/m2a.o
 .bss.u8_cipherEPosition.1
                0x0000000020000181        0x1 Build/m2a.o
 .bss.__lock___malloc_recursive_mutex
                0x0000000020000182        0x1 /home/lubuntu/Documents/ARMToolchain/gcc-arm-none-eabi-10.3-2021.10/bin/../lib/gcc/arm-none-eabi/10.3.1/../../../../arm-none-eabi/lib/thumb/v7e-m+fp/hard/libc_nano.a(lib_a-lock.o)
                0x0000000020000182                __lock___malloc_recursive_mutex
 .bss.__lock___sfp_recursive_mutex
                0x0000000020000183        0x1 /home/lubuntu/Documents/ARMToolchain/gcc-arm-none-eabi-10.3-2021.10/bin/../lib/gcc/arm-none-eabi/10.3.1/../../../../arm-none-eabi/lib/thumb/v7e-m+fp/hard/libc_nano.a(lib_a-lock.o)
                0x0000000020000183                __lock___sfp_recursive_mutex
 .bss.__lock___sinit_recursive_mutex
                0x0000000020000184        0x1 /home/lubuntu/Documents/ARMToolchain/gcc-arm-none-eabi-10.3-2021.10/bin/../lib/gcc/arm-none-eabi/10.3.1/../../../../arm-none-eabi/lib/thumb/v7e-m+fp/hard/libc_nano.a(lib_a-lock.o)
                0x0000000020000184                __lock___sinit_recursive_mutex
 *fill*         0x0000000020000185        0x3 
 .bss.__malloc_free_list
                0x0000000020000188        0x4 /home/lubuntu/Documents/ARMToolchain/gcc-arm-none-eabi-10.3-2021.10/bin/../lib/gcc/arm-none-eabi/10.3.1/../../../../arm-none-eabi/lib/thumb/v7e-m+fp/hard/libc_nano.a(lib_a-nano-mallocr.o)
                0x0000000020000188                __malloc_free_list
 .bss.__malloc_sbrk_start
                0x000000002000018c        0x4 /home/lubuntu/Documents/ARMToolchain/gcc-arm-none-eabi-10.3-2021.10/bin/../lib/gcc/arm-none-eabi/10.3.1/../../../../arm-none-eabi/lib/thumb/v7e-m+fp/hard/libc_nano.a(lib_a-nano-mallocr.o)
                0x000000002000018c                __malloc_sbrk_start
 .bss.errno     0x0000000020000190        0x4 /home/lubuntu/Documents/ARMToolchain/gcc-arm-none-eabi-10.3-2021.10/bin/../lib/gcc/arm-none-eabi/10.3.1/../../../../arm-none-eabi/lib/thumb/v7e-m+fp/hard/libc_nano.a(lib_a-reent.o)
                0x0000000020000190                errno
 .bss.heap_end.0
                0x0000000020000194        0x4 /home/lubuntu/Documents/ARMToolchain/gcc-arm-none-eabi-10.3-2021.10/bin/../lib/gcc/arm-none-eabi/10.3.1/../../../../arm-none-eabi/lib/thumb/v7e-m+fp/hard/libnosys.a(sbrk.o)
 *(COMMON)
                0x0000000020000198                . = ALIGN (0x4)
                0x0000000020000198                _ebss = .

/DISCARD/
 *(.eh_frame)
                0x0000000020000198                . = ALIGN (0x4)
                0x0000000020000198                end = .
                0x0000000020028000                PROVIDE (_stack = (ORIGIN (ram) + LENGTH (ram)))
OUTPUT(Build/m2a.elf elf32-littlearm)
LOAD linker stubs

.debug_info     0x0000000000000000     0x47c1
 .debug_info    0x0000000000000000     0x1599 Build/m2a.o
 .debug_info    0x0000000000001599      0x266 /home/lubuntu/Documents/libOpenCM3/libopencm3/lib/libopencm3_stm32l4.a(gpio_common_all.o)
 .debug_info    0x00000000000017ff      0x233 /home/lubuntu/Documents/libOpenCM3/libopencm3/lib/libopencm3_stm32l4.a(gpio_common_f0234.o)
 .debug_info    0x0000000000001a32      0x7c7 /home/lubuntu/Documents/libOpenCM3/libopencm3/lib/libopencm3_stm32l4.a(rcc.o)
 .debug_info    0x00000000000021f9      0x847 /home/lubuntu/Documents/libOpenCM3/libopencm3/lib/libopencm3_stm32l4.a(rcc_common_all.o)
 .debug_info    0x0000000000002a40     0x111d /home/lubuntu/Documents/libOpenCM3/libopencm3/lib/libopencm3_stm32l4.a(timer_common_all.o)
 .debug_info    0x0000000000003b5d      0x5c4 /home/lubuntu/Documents/libOpenCM3/libopencm3/lib/libopencm3_stm32l4.a(usart_common_all.o)
 .debug_info    0x0000000000004121      0x3ae /home/lubuntu/Documents/libOpenCM3/libopencm3/lib/libopencm3_stm32l4.a(usart_common_v2.o)
 .debug_info    0x00000000000044cf      0x2f2 /home/lubuntu/Documents/libOpenCM3/libopencm3/lib/libopencm3_stm32l4.a(vector.o)

.debug_abbrev   0x0000000000000000      0xd03
 .debug_abbrev  0x0000000000000000      0x219 Build/m2a.o
 .debug_abbrev  0x0000000000000219      0x116 /home/lubuntu/Documents/libOpenCM3/libopencm3/lib/libopencm3_stm32l4.a(gpio_common_all.o)
 .debug_abbrev  0x000000000000032f       0xbf /home/lubuntu/Documents/libOpenCM3/libopencm3/lib/libopencm3_stm32l4.a(gpio_common_f0234.o)
 .debug_abbrev  0x00000000000003ee      0x251 /home/lubuntu/Documents/libOpenCM3/libopencm3/lib/libopencm3_stm32l4.a(rcc.o)
 .debug_abbrev  0x000000000000063f      0x177 /home/lubuntu/Documents/libOpenCM3/libopencm3/lib/libopencm3_stm32l4.a(rcc_common_all.o)
 .debug_abbrev  0x00000000000007b6      0x1a1 /home/lubuntu/Documents/libOpenCM3/libopencm3/lib/libopencm3_stm32l4.a(timer_common_all.o)
 .debug_abbrev  0x0000000000000957      0x129 /home/lubuntu/Documents/libOpenCM3/libopencm3/lib/libopencm3_stm32l4.a(usart_common_all.o)
 .debug_abbrev  0x0000000000000a80      0x128 /home/lubuntu/Documents/libOpenCM3/libopencm3/lib/libopencm3_stm32l4.a(usart_common_v2.o)
 .debug_abbrev  0x0000000000000ba8      0x15b /home/lubuntu/Documents/libOpenCM3/libopencm3/lib/libopencm3_stm32l4.a(vector.o)

.debug_loc      0x0000000000000000     0x1d00
 .debug_loc     0x0000000000000000      0x970 Build/m2a.o
 .debug_loc     0x0000000000000970       0xbe /home/lubuntu/Documents/libOpenCM3/libopencm3/lib/libopencm3_stm32l4.a(gpio_common_all.o)
 .debug_loc     0x0000000000000a2e      0x14f /home/lubuntu/Documents/libOpenCM3/libopencm3/lib/libopencm3_stm32l4.a(gpio_common_f0234.o)
 .debug_loc     0x0000000000000b7d      0x7c7 /home/lubuntu/Documents/libOpenCM3/libopencm3/lib/libopencm3_stm32l4.a(rcc.o)
 .debug_loc     0x0000000000001344      0x120 /home/lubuntu/Documents/libOpenCM3/libopencm3/lib/libopencm3_stm32l4.a(rcc_common_all.o)
 .debug_loc     0x0000000000001464      0x4b2 /home/lubuntu/Documents/libOpenCM3/libopencm3/lib/libopencm3_stm32l4.a(timer_common_all.o)
 .debug_loc     0x0000000000001916      0x1e2 /home/lubuntu/Documents/libOpenCM3/libopencm3/lib/libopencm3_stm32l4.a(usart_common_all.o)
 .debug_loc     0x0000000000001af8       0xe0 /home/lubuntu/Documents/libOpenCM3/libopencm3/lib/libopencm3_stm32l4.a(usart_common_v2.o)
 .debug_loc     0x0000000000001bd8      0x128 /home/lubuntu/Documents/libOpenCM3/libopencm3/lib/libopencm3_stm32l4.a(vector.o)

.debug_aranges  0x0000000000000000      0x6c0
 .debug_aranges
                0x0000000000000000       0xb0 Build/m2a.o
 .debug_aranges
                0x00000000000000b0       0x50 /home/lubuntu/Documents/libOpenCM3/libopencm3/lib/libopencm3_stm32l4.a(gpio_common_all.o)
 .debug_aranges
                0x0000000000000100       0x30 /home/lubuntu/Documents/libOpenCM3/libopencm3/lib/libopencm3_stm32l4.a(gpio_common_f0234.o)
 .debug_aranges
                0x0000000000000130      0x118 /home/lubuntu/Documents/libOpenCM3/libopencm3/lib/libopencm3_stm32l4.a(rcc.o)
 .debug_aranges
                0x0000000000000248       0x60 /home/lubuntu/Documents/libOpenCM3/libopencm3/lib/libopencm3_stm32l4.a(rcc_common_all.o)
 .debug_aranges
                0x00000000000002a8      0x268 /home/lubuntu/Documents/libOpenCM3/libopencm3/lib/libopencm3_stm32l4.a(timer_common_all.o)
 .debug_aranges
                0x0000000000000510       0xd8 /home/lubuntu/Documents/libOpenCM3/libopencm3/lib/libopencm3_stm32l4.a(usart_common_all.o)
 .debug_aranges
                0x00000000000005e8       0xa8 /home/lubuntu/Documents/libOpenCM3/libopencm3/lib/libopencm3_stm32l4.a(usart_common_v2.o)
 .debug_aranges
                0x0000000000000690       0x30 /home/lubuntu/Documents/libOpenCM3/libopencm3/lib/libopencm3_stm32l4.a(vector.o)

.debug_ranges   0x0000000000000000      0x660
 .debug_ranges  0x0000000000000000       0xa0 Build/m2a.o
 .debug_ranges  0x00000000000000a0       0x40 /home/lubuntu/Documents/libOpenCM3/libopencm3/lib/libopencm3_stm32l4.a(gpio_common_all.o)
 .debug_ranges  0x00000000000000e0       0x20 /home/lubuntu/Documents/libOpenCM3/libopencm3/lib/libopencm3_stm32l4.a(gpio_common_f0234.o)
 .debug_ranges  0x0000000000000100      0x138 /home/lubuntu/Documents/libOpenCM3/libopencm3/lib/libopencm3_stm32l4.a(rcc.o)
 .debug_ranges  0x0000000000000238       0x50 /home/lubuntu/Documents/libOpenCM3/libopencm3/lib/libopencm3_stm32l4.a(rcc_common_all.o)
 .debug_ranges  0x0000000000000288      0x258 /home/lubuntu/Documents/libOpenCM3/libopencm3/lib/libopencm3_stm32l4.a(timer_common_all.o)
 .debug_ranges  0x00000000000004e0       0xc8 /home/lubuntu/Documents/libOpenCM3/libopencm3/lib/libopencm3_stm32l4.a(usart_common_all.o)
 .debug_ranges  0x00000000000005a8       0x98 /home/lubuntu/Documents/libOpenCM3/libopencm3/lib/libopencm3_stm32l4.a(usart_common_v2.o)
 .debug_ranges  0x0000000000000640       0x20 /home/lubuntu/Documents/libOpenCM3/libopencm3/lib/libopencm3_stm32l4.a(vector.o)

.debug_line     0x0000000000000000     0x44cb
 .debug_line    0x0000000000000000      0x9ac Build/m2a.o
 .debug_line    0x00000000000009ac      0x45c /home/lubuntu/Documents/libOpenCM3/libopencm3/lib/libopencm3_stm32l4.a(gpio_common_all.o)
 .debug_line    0x0000000000000e08      0x544 /home/lubuntu/Documents/libOpenCM3/libopencm3/lib/libopencm3_stm32l4.a(gpio_common_f0234.o)
 .debug_line    0x000000000000134c      0xac7 /home/lubuntu/Documents/libOpenCM3/libopencm3/lib/libopencm3_stm32l4.a(rcc.o)
 .debug_line    0x0000000000001e13      0x496 /home/lubuntu/Documents/libOpenCM3/libopencm3/lib/libopencm3_stm32l4.a(rcc_common_all.o)
 .debug_line    0x00000000000022a9     0x10f0 /home/lubuntu/Documents/libOpenCM3/libopencm3/lib/libopencm3_stm32l4.a(timer_common_all.o)
 .debug_line    0x0000000000003399      0x6db /home/lubuntu/Documents/libOpenCM3/libopencm3/lib/libopencm3_stm32l4.a(usart_common_all.o)
 .debug_line    0x0000000000003a74      0x57f /home/lubuntu/Documents/libOpenCM3/libopencm3/lib/libopencm3_stm32l4.a(usart_common_v2.o)
 .debug_line    0x0000000000003ff3      0x4d8 /home/lubuntu/Documents/libOpenCM3/libopencm3/lib/libopencm3_stm32l4.a(vector.o)

.debug_str      0x0000000000000000    0x14422
 .debug_str     0x0000000000000000      0xba0 Build/m2a.o
                                        0xc51 (size before relaxing)
 .debug_str     0x0000000000000ba0     0x63c0 /home/lubuntu/Documents/libOpenCM3/libopencm3/lib/libopencm3_stm32l4.a(gpio_common_all.o)
                                       0x6557 (size before relaxing)
 .debug_str     0x0000000000006f60       0x79 /home/lubuntu/Documents/libOpenCM3/libopencm3/lib/libopencm3_stm32l4.a(gpio_common_f0234.o)
                                       0x6579 (size before relaxing)
 .debug_str     0x0000000000006fd9     0x3bad /home/lubuntu/Documents/libOpenCM3/libopencm3/lib/libopencm3_stm32l4.a(rcc.o)
                                       0x8b10 (size before relaxing)
 .debug_str     0x000000000000ab86      0x170 /home/lubuntu/Documents/libOpenCM3/libopencm3/lib/libopencm3_stm32l4.a(rcc_common_all.o)
                                       0x8f6c (size before relaxing)
 .debug_str     0x000000000000acf6     0x4a5b /home/lubuntu/Documents/libOpenCM3/libopencm3/lib/libopencm3_stm32l4.a(timer_common_all.o)
                                       0xd1a3 (size before relaxing)
 .debug_str     0x000000000000f751     0x1ece /home/lubuntu/Documents/libOpenCM3/libopencm3/lib/libopencm3_stm32l4.a(usart_common_all.o)
                                       0xa658 (size before relaxing)
 .debug_str     0x000000000001161f      0x181 /home/lubuntu/Documents/libOpenCM3/libopencm3/lib/libopencm3_stm32l4.a(usart_common_v2.o)
                                       0x6d9e (size before relaxing)
 .debug_str     0x00000000000117a0     0x2c82 /home/lubuntu/Documents/libOpenCM3/libopencm3/lib/libopencm3_stm32l4.a(vector.o)
                                       0x6db5 (size before relaxing)

.comment        0x0000000000000000       0x49
 .comment       0x0000000000000000       0x49 Build/m2a.o
                                         0x4a (size before relaxing)
 .comment       0x0000000000000049       0x4a /home/lubuntu/Documents/libOpenCM3/libopencm3/lib/libopencm3_stm32l4.a(gpio_common_all.o)
 .comment       0x0000000000000049       0x4a /home/lubuntu/Documents/libOpenCM3/libopencm3/lib/libopencm3_stm32l4.a(gpio_common_f0234.o)
 .comment       0x0000000000000049       0x4a /home/lubuntu/Documents/libOpenCM3/libopencm3/lib/libopencm3_stm32l4.a(rcc.o)
 .comment       0x0000000000000049       0x4a /home/lubuntu/Documents/libOpenCM3/libopencm3/lib/libopencm3_stm32l4.a(rcc_common_all.o)
 .comment       0x0000000000000049       0x4a /home/lubuntu/Documents/libOpenCM3/libopencm3/lib/libopencm3_stm32l4.a(timer_common_all.o)
 .comment       0x0000000000000049       0x4a /home/lubuntu/Documents/libOpenCM3/libopencm3/lib/libopencm3_stm32l4.a(usart_common_all.o)
 .comment       0x0000000000000049       0x4a /home/lubuntu/Documents/libOpenCM3/libopencm3/lib/libopencm3_stm32l4.a(usart_common_v2.o)
 .comment       0x0000000000000049       0x4a /home/lubuntu/Documents/libOpenCM3/libopencm3/lib/libopencm3_stm32l4.a(vector.o)

.ARM.attributes
                0x0000000000000000       0x32
 .ARM.attributes
                0x0000000000000000       0x34 Build/m2a.o
 .ARM.attributes
                0x0000000000000034       0x34 /home/lubuntu/Documents/ARMToolchain/gcc-arm-none-eabi-10.3-2021.10/bin/../lib/gcc/arm-none-eabi/10.3.1/../../../../arm-none-eabi/lib/thumb/v7e-m+fp/hard/libc_nano.a(lib_a-assert.o)
 .ARM.attributes
                0x0000000000000068       0x34 /home/lubuntu/Documents/ARMToolchain/gcc-arm-none-eabi-10.3-2021.10/bin/../lib/gcc/arm-none-eabi/10.3.1/../../../../arm-none-eabi/lib/thumb/v7e-m+fp/hard/libc_nano.a(lib_a-errno.o)
 .ARM.attributes
                0x000000000000009c       0x34 /home/lubuntu/Documents/ARMToolchain/gcc-arm-none-eabi-10.3-2021.10/bin/../lib/gcc/arm-none-eabi/10.3.1/../../../../arm-none-eabi/lib/thumb/v7e-m+fp/hard/libc_nano.a(lib_a-fprintf.o)
 .ARM.attributes
                0x00000000000000d0       0x34 /home/lubuntu/Documents/ARMToolchain/gcc-arm-none-eabi-10.3-2021.10/bin/../lib/gcc/arm-none-eabi/10.3.1/../../../../arm-none-eabi/lib/thumb/v7e-m+fp/hard/libc_nano.a(lib_a-impure.o)
 .ARM.attributes
                0x0000000000000104       0x34 /home/lubuntu/Documents/ARMToolchain/gcc-arm-none-eabi-10.3-2021.10/bin/../lib/gcc/arm-none-eabi/10.3.1/../../../../arm-none-eabi/lib/thumb/v7e-m+fp/hard/libc_nano.a(lib_a-nano-vfprintf.o)
 .ARM.attributes
                0x0000000000000138       0x34 /home/lubuntu/Documents/ARMToolchain/gcc-arm-none-eabi-10.3-2021.10/bin/../lib/gcc/arm-none-eabi/10.3.1/../../../../arm-none-eabi/lib/thumb/v7e-m+fp/hard/libc_nano.a(lib_a-nano-vfprintf_i.o)
 .ARM.attributes
                0x000000000000016c       0x34 /home/lubuntu/Documents/ARMToolchain/gcc-arm-none-eabi-10.3-2021.10/bin/../lib/gcc/arm-none-eabi/10.3.1/../../../../arm-none-eabi/lib/thumb/v7e-m+fp/hard/libc_nano.a(lib_a-printf.o)
 .ARM.attributes
                0x00000000000001a0       0x34 /home/lubuntu/Documents/ARMToolchain/gcc-arm-none-eabi-10.3-2021.10/bin/../lib/gcc/arm-none-eabi/10.3.1/../../../../arm-none-eabi/lib/thumb/v7e-m+fp/hard/libc_nano.a(lib_a-wbuf.o)
 .ARM.attributes
                0x00000000000001d4       0x34 /home/lubuntu/Documents/ARMToolchain/gcc-arm-none-eabi-10.3-2021.10/bin/../lib/gcc/arm-none-eabi/10.3.1/../../../../arm-none-eabi/lib/thumb/v7e-m+fp/hard/libc_nano.a(lib_a-wsetup.o)
 .ARM.attributes
                0x0000000000000208       0x34 /home/lubuntu/Documents/ARMToolchain/gcc-arm-none-eabi-10.3-2021.10/bin/../lib/gcc/arm-none-eabi/10.3.1/../../../../arm-none-eabi/lib/thumb/v7e-m+fp/hard/libc_nano.a(lib_a-abort.o)
 .ARM.attributes
                0x000000000000023c       0x34 /home/lubuntu/Documents/ARMToolchain/gcc-arm-none-eabi-10.3-2021.10/bin/../lib/gcc/arm-none-eabi/10.3.1/../../../../arm-none-eabi/lib/thumb/v7e-m+fp/hard/libc_nano.a(lib_a-fflush.o)
 .ARM.attributes
                0x0000000000000270       0x34 /home/lubuntu/Documents/ARMToolchain/gcc-arm-none-eabi-10.3-2021.10/bin/../lib/gcc/arm-none-eabi/10.3.1/../../../../arm-none-eabi/lib/thumb/v7e-m+fp/hard/libc_nano.a(lib_a-findfp.o)
 .ARM.attributes
                0x00000000000002a4       0x34 /home/lubuntu/Documents/ARMToolchain/gcc-arm-none-eabi-10.3-2021.10/bin/../lib/gcc/arm-none-eabi/10.3.1/../../../../arm-none-eabi/lib/thumb/v7e-m+fp/hard/libc_nano.a(lib_a-fwalk.o)
 .ARM.attributes
                0x00000000000002d8       0x34 /home/lubuntu/Documents/ARMToolchain/gcc-arm-none-eabi-10.3-2021.10/bin/../lib/gcc/arm-none-eabi/10.3.1/../../../../arm-none-eabi/lib/thumb/v7e-m+fp/hard/libc_nano.a(lib_a-lock.o)
 .ARM.attributes
                0x000000000000030c       0x34 /home/lubuntu/Documents/ARMToolchain/gcc-arm-none-eabi-10.3-2021.10/bin/../lib/gcc/arm-none-eabi/10.3.1/../../../../arm-none-eabi/lib/thumb/v7e-m+fp/hard/libc_nano.a(lib_a-makebuf.o)
 .ARM.attributes
                0x0000000000000340       0x1c /home/lubuntu/Documents/ARMToolchain/gcc-arm-none-eabi-10.3-2021.10/bin/../lib/gcc/arm-none-eabi/10.3.1/../../../../arm-none-eabi/lib/thumb/v7e-m+fp/hard/libc_nano.a(lib_a-memchr.o)
 .ARM.attributes
                0x000000000000035c       0x34 /home/lubuntu/Documents/ARMToolchain/gcc-arm-none-eabi-10.3-2021.10/bin/../lib/gcc/arm-none-eabi/10.3.1/../../../../arm-none-eabi/lib/thumb/v7e-m+fp/hard/libc_nano.a(lib_a-memset.o)
 .ARM.attributes
                0x0000000000000390       0x34 /home/lubuntu/Documents/ARMToolchain/gcc-arm-none-eabi-10.3-2021.10/bin/../lib/gcc/arm-none-eabi/10.3.1/../../../../arm-none-eabi/lib/thumb/v7e-m+fp/hard/libc_nano.a(lib_a-nano-freer.o)
 .ARM.attributes
                0x00000000000003c4       0x34 /home/lubuntu/Documents/ARMToolchain/gcc-arm-none-eabi-10.3-2021.10/bin/../lib/gcc/arm-none-eabi/10.3.1/../../../../arm-none-eabi/lib/thumb/v7e-m+fp/hard/libc_nano.a(lib_a-nano-mallocr.o)
 .ARM.attributes
                0x00000000000003f8       0x34 /home/lubuntu/Documents/ARMToolchain/gcc-arm-none-eabi-10.3-2021.10/bin/../lib/gcc/arm-none-eabi/10.3.1/../../../../arm-none-eabi/lib/thumb/v7e-m+fp/hard/libc_nano.a(lib_a-sbrkr.o)
 .ARM.attributes
                0x000000000000042c       0x34 /home/lubuntu/Documents/ARMToolchain/gcc-arm-none-eabi-10.3-2021.10/bin/../lib/gcc/arm-none-eabi/10.3.1/../../../../arm-none-eabi/lib/thumb/v7e-m+fp/hard/libc_nano.a(lib_a-signal.o)
 .ARM.attributes
                0x0000000000000460       0x34 /home/lubuntu/Documents/ARMToolchain/gcc-arm-none-eabi-10.3-2021.10/bin/../lib/gcc/arm-none-eabi/10.3.1/../../../../arm-none-eabi/lib/thumb/v7e-m+fp/hard/libc_nano.a(lib_a-signalr.o)
 .ARM.attributes
                0x0000000000000494       0x34 /home/lubuntu/Documents/ARMToolchain/gcc-arm-none-eabi-10.3-2021.10/bin/../lib/gcc/arm-none-eabi/10.3.1/../../../../arm-none-eabi/lib/thumb/v7e-m+fp/hard/libc_nano.a(lib_a-stdio.o)
 .ARM.attributes
                0x00000000000004c8       0x34 /home/lubuntu/Documents/ARMToolchain/gcc-arm-none-eabi-10.3-2021.10/bin/../lib/gcc/arm-none-eabi/10.3.1/../../../../arm-none-eabi/lib/thumb/v7e-m+fp/hard/libc_nano.a(lib_a-writer.o)
 .ARM.attributes
                0x00000000000004fc       0x34 /home/lubuntu/Documents/ARMToolchain/gcc-arm-none-eabi-10.3-2021.10/bin/../lib/gcc/arm-none-eabi/10.3.1/../../../../arm-none-eabi/lib/thumb/v7e-m+fp/hard/libc_nano.a(lib_a-closer.o)
 .ARM.attributes
                0x0000000000000530       0x34 /home/lubuntu/Documents/ARMToolchain/gcc-arm-none-eabi-10.3-2021.10/bin/../lib/gcc/arm-none-eabi/10.3.1/../../../../arm-none-eabi/lib/thumb/v7e-m+fp/hard/libc_nano.a(lib_a-fstatr.o)
 .ARM.attributes
                0x0000000000000564       0x34 /home/lubuntu/Documents/ARMToolchain/gcc-arm-none-eabi-10.3-2021.10/bin/../lib/gcc/arm-none-eabi/10.3.1/../../../../arm-none-eabi/lib/thumb/v7e-m+fp/hard/libc_nano.a(lib_a-isattyr.o)
 .ARM.attributes
                0x0000000000000598       0x34 /home/lubuntu/Documents/ARMToolchain/gcc-arm-none-eabi-10.3-2021.10/bin/../lib/gcc/arm-none-eabi/10.3.1/../../../../arm-none-eabi/lib/thumb/v7e-m+fp/hard/libc_nano.a(lib_a-lseekr.o)
 .ARM.attributes
                0x00000000000005cc       0x34 /home/lubuntu/Documents/ARMToolchain/gcc-arm-none-eabi-10.3-2021.10/bin/../lib/gcc/arm-none-eabi/10.3.1/../../../../arm-none-eabi/lib/thumb/v7e-m+fp/hard/libc_nano.a(lib_a-mlock.o)
 .ARM.attributes
                0x0000000000000600       0x34 /home/lubuntu/Documents/ARMToolchain/gcc-arm-none-eabi-10.3-2021.10/bin/../lib/gcc/arm-none-eabi/10.3.1/../../../../arm-none-eabi/lib/thumb/v7e-m+fp/hard/libc_nano.a(lib_a-readr.o)
 .ARM.attributes
                0x0000000000000634       0x34 /home/lubuntu/Documents/ARMToolchain/gcc-arm-none-eabi-10.3-2021.10/bin/../lib/gcc/arm-none-eabi/10.3.1/../../../../arm-none-eabi/lib/thumb/v7e-m+fp/hard/libc_nano.a(lib_a-reent.o)
 .ARM.attributes
                0x0000000000000668       0x34 /home/lubuntu/Documents/ARMToolchain/gcc-arm-none-eabi-10.3-2021.10/bin/../lib/gcc/arm-none-eabi/10.3.1/../../../../arm-none-eabi/lib/thumb/v7e-m+fp/hard/libnosys.a(close.o)
 .ARM.attributes
                0x000000000000069c       0x34 /home/lubuntu/Documents/ARMToolchain/gcc-arm-none-eabi-10.3-2021.10/bin/../lib/gcc/arm-none-eabi/10.3.1/../../../../arm-none-eabi/lib/thumb/v7e-m+fp/hard/libnosys.a(fstat.o)
 .ARM.attributes
                0x00000000000006d0       0x34 /home/lubuntu/Documents/ARMToolchain/gcc-arm-none-eabi-10.3-2021.10/bin/../lib/gcc/arm-none-eabi/10.3.1/../../../../arm-none-eabi/lib/thumb/v7e-m+fp/hard/libnosys.a(getpid.o)
 .ARM.attributes
                0x0000000000000704       0x34 /home/lubuntu/Documents/ARMToolchain/gcc-arm-none-eabi-10.3-2021.10/bin/../lib/gcc/arm-none-eabi/10.3.1/../../../../arm-none-eabi/lib/thumb/v7e-m+fp/hard/libnosys.a(isatty.o)
 .ARM.attributes
                0x0000000000000738       0x34 /home/lubuntu/Documents/ARMToolchain/gcc-arm-none-eabi-10.3-2021.10/bin/../lib/gcc/arm-none-eabi/10.3.1/../../../../arm-none-eabi/lib/thumb/v7e-m+fp/hard/libnosys.a(kill.o)
 .ARM.attributes
                0x000000000000076c       0x34 /home/lubuntu/Documents/ARMToolchain/gcc-arm-none-eabi-10.3-2021.10/bin/../lib/gcc/arm-none-eabi/10.3.1/../../../../arm-none-eabi/lib/thumb/v7e-m+fp/hard/libnosys.a(lseek.o)
 .ARM.attributes
                0x00000000000007a0       0x34 /home/lubuntu/Documents/ARMToolchain/gcc-arm-none-eabi-10.3-2021.10/bin/../lib/gcc/arm-none-eabi/10.3.1/../../../../arm-none-eabi/lib/thumb/v7e-m+fp/hard/libnosys.a(read.o)
 .ARM.attributes
                0x00000000000007d4       0x34 /home/lubuntu/Documents/ARMToolchain/gcc-arm-none-eabi-10.3-2021.10/bin/../lib/gcc/arm-none-eabi/10.3.1/../../../../arm-none-eabi/lib/thumb/v7e-m+fp/hard/libnosys.a(sbrk.o)
 .ARM.attributes
                0x0000000000000808       0x34 /home/lubuntu/Documents/ARMToolchain/gcc-arm-none-eabi-10.3-2021.10/bin/../lib/gcc/arm-none-eabi/10.3.1/../../../../arm-none-eabi/lib/thumb/v7e-m+fp/hard/libnosys.a(_exit.o)
 .ARM.attributes
                0x000000000000083c       0x34 /home/lubuntu/Documents/libOpenCM3/libopencm3/lib/libopencm3_stm32l4.a(gpio_common_all.o)
 .ARM.attributes
                0x0000000000000870       0x34 /home/lubuntu/Documents/libOpenCM3/libopencm3/lib/libopencm3_stm32l4.a(gpio_common_f0234.o)
 .ARM.attributes
                0x00000000000008a4       0x34 /home/lubuntu/Documents/libOpenCM3/libopencm3/lib/libopencm3_stm32l4.a(rcc.o)
 .ARM.attributes
                0x00000000000008d8       0x34 /home/lubuntu/Documents/libOpenCM3/libopencm3/lib/libopencm3_stm32l4.a(rcc_common_all.o)
 .ARM.attributes
                0x000000000000090c       0x34 /home/lubuntu/Documents/libOpenCM3/libopencm3/lib/libopencm3_stm32l4.a(timer_common_all.o)
 .ARM.attributes
                0x0000000000000940       0x34 /home/lubuntu/Documents/libOpenCM3/libopencm3/lib/libopencm3_stm32l4.a(usart_common_all.o)
 .ARM.attributes
                0x0000000000000974       0x34 /home/lubuntu/Documents/libOpenCM3/libopencm3/lib/libopencm3_stm32l4.a(usart_common_v2.o)
 .ARM.attributes
                0x00000000000009a8       0x34 /home/lubuntu/Documents/libOpenCM3/libopencm3/lib/libopencm3_stm32l4.a(vector.o)

.debug_frame    0x0000000000000000     0x18d0
 .debug_frame   0x0000000000000000      0x1f0 Build/m2a.o
 .debug_frame   0x00000000000001f0       0x40 /home/lubuntu/Documents/ARMToolchain/gcc-arm-none-eabi-10.3-2021.10/bin/../lib/gcc/arm-none-eabi/10.3.1/../../../../arm-none-eabi/lib/thumb/v7e-m+fp/hard/libc_nano.a(lib_a-assert.o)
 .debug_frame   0x0000000000000230       0x20 /home/lubuntu/Documents/ARMToolchain/gcc-arm-none-eabi-10.3-2021.10/bin/../lib/gcc/arm-none-eabi/10.3.1/../../../../arm-none-eabi/lib/thumb/v7e-m+fp/hard/libc_nano.a(lib_a-errno.o)
 .debug_frame   0x0000000000000250       0x64 /home/lubuntu/Documents/ARMToolchain/gcc-arm-none-eabi-10.3-2021.10/bin/../lib/gcc/arm-none-eabi/10.3.1/../../../../arm-none-eabi/lib/thumb/v7e-m+fp/hard/libc_nano.a(lib_a-fprintf.o)
 .debug_frame   0x00000000000002b4       0xac /home/lubuntu/Documents/ARMToolchain/gcc-arm-none-eabi-10.3-2021.10/bin/../lib/gcc/arm-none-eabi/10.3.1/../../../../arm-none-eabi/lib/thumb/v7e-m+fp/hard/libc_nano.a(lib_a-nano-vfprintf.o)
 .debug_frame   0x0000000000000360       0x60 /home/lubuntu/Documents/ARMToolchain/gcc-arm-none-eabi-10.3-2021.10/bin/../lib/gcc/arm-none-eabi/10.3.1/../../../../arm-none-eabi/lib/thumb/v7e-m+fp/hard/libc_nano.a(lib_a-nano-vfprintf_i.o)
 .debug_frame   0x00000000000003c0       0x74 /home/lubuntu/Documents/ARMToolchain/gcc-arm-none-eabi-10.3-2021.10/bin/../lib/gcc/arm-none-eabi/10.3.1/../../../../arm-none-eabi/lib/thumb/v7e-m+fp/hard/libc_nano.a(lib_a-printf.o)
 .debug_frame   0x0000000000000434       0x40 /home/lubuntu/Documents/ARMToolchain/gcc-arm-none-eabi-10.3-2021.10/bin/../lib/gcc/arm-none-eabi/10.3.1/../../../../arm-none-eabi/lib/thumb/v7e-m+fp/hard/libc_nano.a(lib_a-wbuf.o)
 .debug_frame   0x0000000000000474       0x2c /home/lubuntu/Documents/ARMToolchain/gcc-arm-none-eabi-10.3-2021.10/bin/../lib/gcc/arm-none-eabi/10.3.1/../../../../arm-none-eabi/lib/thumb/v7e-m+fp/hard/libc_nano.a(lib_a-wsetup.o)
 .debug_frame   0x00000000000004a0       0x28 /home/lubuntu/Documents/ARMToolchain/gcc-arm-none-eabi-10.3-2021.10/bin/../lib/gcc/arm-none-eabi/10.3.1/../../../../arm-none-eabi/lib/thumb/v7e-m+fp/hard/libc_nano.a(lib_a-abort.o)
 .debug_frame   0x00000000000004c8       0x5c /home/lubuntu/Documents/ARMToolchain/gcc-arm-none-eabi-10.3-2021.10/bin/../lib/gcc/arm-none-eabi/10.3.1/../../../../arm-none-eabi/lib/thumb/v7e-m+fp/hard/libc_nano.a(lib_a-fflush.o)
 .debug_frame   0x0000000000000524      0x14c /home/lubuntu/Documents/ARMToolchain/gcc-arm-none-eabi-10.3-2021.10/bin/../lib/gcc/arm-none-eabi/10.3.1/../../../../arm-none-eabi/lib/thumb/v7e-m+fp/hard/libc_nano.a(lib_a-findfp.o)
 .debug_frame   0x0000000000000670       0x54 /home/lubuntu/Documents/ARMToolchain/gcc-arm-none-eabi-10.3-2021.10/bin/../lib/gcc/arm-none-eabi/10.3.1/../../../../arm-none-eabi/lib/thumb/v7e-m+fp/hard/libc_nano.a(lib_a-fwalk.o)
 .debug_frame   0x00000000000006c4       0xb0 /home/lubuntu/Documents/ARMToolchain/gcc-arm-none-eabi-10.3-2021.10/bin/../lib/gcc/arm-none-eabi/10.3.1/../../../../arm-none-eabi/lib/thumb/v7e-m+fp/hard/libc_nano.a(lib_a-lock.o)
 .debug_frame   0x0000000000000774       0x58 /home/lubuntu/Documents/ARMToolchain/gcc-arm-none-eabi-10.3-2021.10/bin/../lib/gcc/arm-none-eabi/10.3.1/../../../../arm-none-eabi/lib/thumb/v7e-m+fp/hard/libc_nano.a(lib_a-makebuf.o)
 .debug_frame   0x00000000000007cc       0x20 /home/lubuntu/Documents/ARMToolchain/gcc-arm-none-eabi-10.3-2021.10/bin/../lib/gcc/arm-none-eabi/10.3.1/../../../../arm-none-eabi/lib/thumb/v7e-m+fp/hard/libc_nano.a(lib_a-memset.o)
 .debug_frame   0x00000000000007ec       0x38 /home/lubuntu/Documents/ARMToolchain/gcc-arm-none-eabi-10.3-2021.10/bin/../lib/gcc/arm-none-eabi/10.3.1/../../../../arm-none-eabi/lib/thumb/v7e-m+fp/hard/libc_nano.a(lib_a-nano-freer.o)
 .debug_frame   0x0000000000000824       0x4c /home/lubuntu/Documents/ARMToolchain/gcc-arm-none-eabi-10.3-2021.10/bin/../lib/gcc/arm-none-eabi/10.3.1/../../../../arm-none-eabi/lib/thumb/v7e-m+fp/hard/libc_nano.a(lib_a-nano-mallocr.o)
 .debug_frame   0x0000000000000870       0x2c /home/lubuntu/Documents/ARMToolchain/gcc-arm-none-eabi-10.3-2021.10/bin/../lib/gcc/arm-none-eabi/10.3.1/../../../../arm-none-eabi/lib/thumb/v7e-m+fp/hard/libc_nano.a(lib_a-sbrkr.o)
 .debug_frame   0x000000000000089c       0xcc /home/lubuntu/Documents/ARMToolchain/gcc-arm-none-eabi-10.3-2021.10/bin/../lib/gcc/arm-none-eabi/10.3.1/../../../../arm-none-eabi/lib/thumb/v7e-m+fp/hard/libc_nano.a(lib_a-signal.o)
 .debug_frame   0x0000000000000968       0x3c /home/lubuntu/Documents/ARMToolchain/gcc-arm-none-eabi-10.3-2021.10/bin/../lib/gcc/arm-none-eabi/10.3.1/../../../../arm-none-eabi/lib/thumb/v7e-m+fp/hard/libc_nano.a(lib_a-signalr.o)
 .debug_frame   0x00000000000009a4       0x88 /home/lubuntu/Documents/ARMToolchain/gcc-arm-none-eabi-10.3-2021.10/bin/../lib/gcc/arm-none-eabi/10.3.1/../../../../arm-none-eabi/lib/thumb/v7e-m+fp/hard/libc_nano.a(lib_a-stdio.o)
 .debug_frame   0x0000000000000a2c       0x2c /home/lubuntu/Documents/ARMToolchain/gcc-arm-none-eabi-10.3-2021.10/bin/../lib/gcc/arm-none-eabi/10.3.1/../../../../arm-none-eabi/lib/thumb/v7e-m+fp/hard/libc_nano.a(lib_a-writer.o)
 .debug_frame   0x0000000000000a58       0x2c /home/lubuntu/Documents/ARMToolchain/gcc-arm-none-eabi-10.3-2021.10/bin/../lib/gcc/arm-none-eabi/10.3.1/../../../../arm-none-eabi/lib/thumb/v7e-m+fp/hard/libc_nano.a(lib_a-closer.o)
 .debug_frame   0x0000000000000a84       0x2c /home/lubuntu/Documents/ARMToolchain/gcc-arm-none-eabi-10.3-2021.10/bin/../lib/gcc/arm-none-eabi/10.3.1/../../../../arm-none-eabi/lib/thumb/v7e-m+fp/hard/libc_nano.a(lib_a-fstatr.o)
 .debug_frame   0x0000000000000ab0       0x2c /home/lubuntu/Documents/ARMToolchain/gcc-arm-none-eabi-10.3-2021.10/bin/../lib/gcc/arm-none-eabi/10.3.1/../../../../arm-none-eabi/lib/thumb/v7e-m+fp/hard/libc_nano.a(lib_a-isattyr.o)
 .debug_frame   0x0000000000000adc       0x2c /home/lubuntu/Documents/ARMToolchain/gcc-arm-none-eabi-10.3-2021.10/bin/../lib/gcc/arm-none-eabi/10.3.1/../../../../arm-none-eabi/lib/thumb/v7e-m+fp/hard/libc_nano.a(lib_a-lseekr.o)
 .debug_frame   0x0000000000000b08       0x30 /home/lubuntu/Documents/ARMToolchain/gcc-arm-none-eabi-10.3-2021.10/bin/../lib/gcc/arm-none-eabi/10.3.1/../../../../arm-none-eabi/lib/thumb/v7e-m+fp/hard/libc_nano.a(lib_a-mlock.o)
 .debug_frame   0x0000000000000b38       0x2c /home/lubuntu/Documents/ARMToolchain/gcc-arm-none-eabi-10.3-2021.10/bin/../lib/gcc/arm-none-eabi/10.3.1/../../../../arm-none-eabi/lib/thumb/v7e-m+fp/hard/libc_nano.a(lib_a-readr.o)
 .debug_frame   0x0000000000000b64       0x5c /home/lubuntu/Documents/ARMToolchain/gcc-arm-none-eabi-10.3-2021.10/bin/../lib/gcc/arm-none-eabi/10.3.1/../../../../arm-none-eabi/lib/thumb/v7e-m+fp/hard/libc_nano.a(lib_a-reent.o)
 .debug_frame   0x0000000000000bc0       0x20 /home/lubuntu/Documents/ARMToolchain/gcc-arm-none-eabi-10.3-2021.10/bin/../lib/gcc/arm-none-eabi/10.3.1/../../../../arm-none-eabi/lib/thumb/v7e-m+fp/hard/libnosys.a(close.o)
 .debug_frame   0x0000000000000be0       0x20 /home/lubuntu/Documents/ARMToolchain/gcc-arm-none-eabi-10.3-2021.10/bin/../lib/gcc/arm-none-eabi/10.3.1/../../../../arm-none-eabi/lib/thumb/v7e-m+fp/hard/libnosys.a(fstat.o)
 .debug_frame   0x0000000000000c00       0x20 /home/lubuntu/Documents/ARMToolchain/gcc-arm-none-eabi-10.3-2021.10/bin/../lib/gcc/arm-none-eabi/10.3.1/../../../../arm-none-eabi/lib/thumb/v7e-m+fp/hard/libnosys.a(getpid.o)
 .debug_frame   0x0000000000000c20       0x20 /home/lubuntu/Documents/ARMToolchain/gcc-arm-none-eabi-10.3-2021.10/bin/../lib/gcc/arm-none-eabi/10.3.1/../../../../arm-none-eabi/lib/thumb/v7e-m+fp/hard/libnosys.a(isatty.o)
 .debug_frame   0x0000000000000c40       0x20 /home/lubuntu/Documents/ARMToolchain/gcc-arm-none-eabi-10.3-2021.10/bin/../lib/gcc/arm-none-eabi/10.3.1/../../../../arm-none-eabi/lib/thumb/v7e-m+fp/hard/libnosys.a(kill.o)
 .debug_frame   0x0000000000000c60       0x20 /home/lubuntu/Documents/ARMToolchain/gcc-arm-none-eabi-10.3-2021.10/bin/../lib/gcc/arm-none-eabi/10.3.1/../../../../arm-none-eabi/lib/thumb/v7e-m+fp/hard/libnosys.a(lseek.o)
 .debug_frame   0x0000000000000c80       0x20 /home/lubuntu/Documents/ARMToolchain/gcc-arm-none-eabi-10.3-2021.10/bin/../lib/gcc/arm-none-eabi/10.3.1/../../../../arm-none-eabi/lib/thumb/v7e-m+fp/hard/libnosys.a(read.o)
 .debug_frame   0x0000000000000ca0       0x20 /home/lubuntu/Documents/ARMToolchain/gcc-arm-none-eabi-10.3-2021.10/bin/../lib/gcc/arm-none-eabi/10.3.1/../../../../arm-none-eabi/lib/thumb/v7e-m+fp/hard/libnosys.a(sbrk.o)
 .debug_frame   0x0000000000000cc0       0x20 /home/lubuntu/Documents/ARMToolchain/gcc-arm-none-eabi-10.3-2021.10/bin/../lib/gcc/arm-none-eabi/10.3.1/../../../../arm-none-eabi/lib/thumb/v7e-m+fp/hard/libnosys.a(_exit.o)
 .debug_frame   0x0000000000000ce0       0x80 /home/lubuntu/Documents/libOpenCM3/libopencm3/lib/libopencm3_stm32l4.a(gpio_common_all.o)
 .debug_frame   0x0000000000000d60       0x70 /home/lubuntu/Documents/libOpenCM3/libopencm3/lib/libopencm3_stm32l4.a(gpio_common_f0234.o)
 .debug_frame   0x0000000000000dd0      0x228 /home/lubuntu/Documents/libOpenCM3/libopencm3/lib/libopencm3_stm32l4.a(rcc.o)
 .debug_frame   0x0000000000000ff8       0xe0 /home/lubuntu/Documents/libOpenCM3/libopencm3/lib/libopencm3_stm32l4.a(rcc_common_all.o)
 .debug_frame   0x00000000000010d8      0x4c8 /home/lubuntu/Documents/libOpenCM3/libopencm3/lib/libopencm3_stm32l4.a(timer_common_all.o)
 .debug_frame   0x00000000000015a0      0x1b4 /home/lubuntu/Documents/libOpenCM3/libopencm3/lib/libopencm3_stm32l4.a(usart_common_all.o)
 .debug_frame   0x0000000000001754      0x130 /home/lubuntu/Documents/libOpenCM3/libopencm3/lib/libopencm3_stm32l4.a(usart_common_v2.o)
 .debug_frame   0x0000000000001884       0x4c /home/lubuntu/Documents/libOpenCM3/libopencm3/lib/libopencm3_stm32l4.a(vector.o)

.stab           0x0000000000000000       0xb4
 .stab          0x0000000000000000       0x24 /home/lubuntu/Documents/ARMToolchain/gcc-arm-none-eabi-10.3-2021.10/bin/../lib/gcc/arm-none-eabi/10.3.1/../../../../arm-none-eabi/lib/thumb/v7e-m+fp/hard/libnosys.a(close.o)
 .stab          0x0000000000000024       0x18 /home/lubuntu/Documents/ARMToolchain/gcc-arm-none-eabi-10.3-2021.10/bin/../lib/gcc/arm-none-eabi/10.3.1/../../../../arm-none-eabi/lib/thumb/v7e-m+fp/hard/libnosys.a(fstat.o)
                                         0x24 (size before relaxing)
 .stab          0x000000000000003c       0x18 /home/lubuntu/Documents/ARMToolchain/gcc-arm-none-eabi-10.3-2021.10/bin/../lib/gcc/arm-none-eabi/10.3.1/../../../../arm-none-eabi/lib/thumb/v7e-m+fp/hard/libnosys.a(getpid.o)
                                         0x24 (size before relaxing)
 .stab          0x0000000000000054       0x18 /home/lubuntu/Documents/ARMToolchain/gcc-arm-none-eabi-10.3-2021.10/bin/../lib/gcc/arm-none-eabi/10.3.1/../../../../arm-none-eabi/lib/thumb/v7e-m+fp/hard/libnosys.a(isatty.o)
                                         0x24 (size before relaxing)
 .stab          0x000000000000006c       0x18 /home/lubuntu/Documents/ARMToolchain/gcc-arm-none-eabi-10.3-2021.10/bin/../lib/gcc/arm-none-eabi/10.3.1/../../../../arm-none-eabi/lib/thumb/v7e-m+fp/hard/libnosys.a(kill.o)
                                         0x24 (size before relaxing)
 .stab          0x0000000000000084       0x18 /home/lubuntu/Documents/ARMToolchain/gcc-arm-none-eabi-10.3-2021.10/bin/../lib/gcc/arm-none-eabi/10.3.1/../../../../arm-none-eabi/lib/thumb/v7e-m+fp/hard/libnosys.a(lseek.o)
                                         0x24 (size before relaxing)
 .stab          0x000000000000009c       0x18 /home/lubuntu/Documents/ARMToolchain/gcc-arm-none-eabi-10.3-2021.10/bin/../lib/gcc/arm-none-eabi/10.3.1/../../../../arm-none-eabi/lib/thumb/v7e-m+fp/hard/libnosys.a(read.o)
                                         0x24 (size before relaxing)

.stabstr        0x0000000000000000      0x183
 .stabstr       0x0000000000000000      0x183 /home/lubuntu/Documents/ARMToolchain/gcc-arm-none-eabi-10.3-2021.10/bin/../lib/gcc/arm-none-eabi/10.3.1/../../../../arm-none-eabi/lib/thumb/v7e-m+fp/hard/libnosys.a(close.o)

.debug_macro    0x0000000000000000     0x4769
 .debug_macro   0x0000000000000000       0xd6 /home/lubuntu/Documents/libOpenCM3/libopencm3/lib/libopencm3_stm32l4.a(gpio_common_all.o)
 .debug_macro   0x00000000000000d6      0xa6c /home/lubuntu/Documents/libOpenCM3/libopencm3/lib/libopencm3_stm32l4.a(gpio_common_all.o)
 .debug_macro   0x0000000000000b42       0x1c /home/lubuntu/Documents/libOpenCM3/libopencm3/lib/libopencm3_stm32l4.a(gpio_common_all.o)
 .debug_macro   0x0000000000000b5e       0x22 /home/lubuntu/Documents/libOpenCM3/libopencm3/lib/libopencm3_stm32l4.a(gpio_common_all.o)
 .debug_macro   0x0000000000000b80       0x56 /home/lubuntu/Documents/libOpenCM3/libopencm3/lib/libopencm3_stm32l4.a(gpio_common_all.o)
 .debug_macro   0x0000000000000bd6       0x51 /home/lubuntu/Documents/libOpenCM3/libopencm3/lib/libopencm3_stm32l4.a(gpio_common_all.o)
 .debug_macro   0x0000000000000c27      0x103 /home/lubuntu/Documents/libOpenCM3/libopencm3/lib/libopencm3_stm32l4.a(gpio_common_all.o)
 .debug_macro   0x0000000000000d2a       0x6a /home/lubuntu/Documents/libOpenCM3/libopencm3/lib/libopencm3_stm32l4.a(gpio_common_all.o)
 .debug_macro   0x0000000000000d94      0x1df /home/lubuntu/Documents/libOpenCM3/libopencm3/lib/libopencm3_stm32l4.a(gpio_common_all.o)
 .debug_macro   0x0000000000000f73       0x22 /home/lubuntu/Documents/libOpenCM3/libopencm3/lib/libopencm3_stm32l4.a(gpio_common_all.o)
 .debug_macro   0x0000000000000f95       0xe8 /home/lubuntu/Documents/libOpenCM3/libopencm3/lib/libopencm3_stm32l4.a(gpio_common_all.o)
 .debug_macro   0x000000000000107d       0x76 /home/lubuntu/Documents/libOpenCM3/libopencm3/lib/libopencm3_stm32l4.a(gpio_common_all.o)
 .debug_macro   0x00000000000010f3      0x217 /home/lubuntu/Documents/libOpenCM3/libopencm3/lib/libopencm3_stm32l4.a(gpio_common_all.o)
 .debug_macro   0x000000000000130a       0x76 /home/lubuntu/Documents/libOpenCM3/libopencm3/lib/libopencm3_stm32l4.a(gpio_common_all.o)
 .debug_macro   0x0000000000001380      0x37e /home/lubuntu/Documents/libOpenCM3/libopencm3/lib/libopencm3_stm32l4.a(gpio_common_all.o)
 .debug_macro   0x00000000000016fe       0xca /home/lubuntu/Documents/libOpenCM3/libopencm3/lib/libopencm3_stm32l4.a(gpio_common_all.o)
 .debug_macro   0x00000000000017c8       0x88 /home/lubuntu/Documents/libOpenCM3/libopencm3/lib/libopencm3_stm32l4.a(gpio_common_all.o)
 .debug_macro   0x0000000000001850       0xd6 /home/lubuntu/Documents/libOpenCM3/libopencm3/lib/libopencm3_stm32l4.a(gpio_common_f0234.o)
 .debug_macro   0x0000000000001926       0xc3 /home/lubuntu/Documents/libOpenCM3/libopencm3/lib/libopencm3_stm32l4.a(rcc.o)
 .debug_macro   0x00000000000019e9       0x16 /home/lubuntu/Documents/libOpenCM3/libopencm3/lib/libopencm3_stm32l4.a(rcc.o)
 .debug_macro   0x00000000000019ff      0xcfc /home/lubuntu/Documents/libOpenCM3/libopencm3/lib/libopencm3_stm32l4.a(rcc.o)
 .debug_macro   0x00000000000026fb       0xce /home/lubuntu/Documents/libOpenCM3/libopencm3/lib/libopencm3_stm32l4.a(rcc_common_all.o)
 .debug_macro   0x00000000000027c9       0xc5 /home/lubuntu/Documents/libOpenCM3/libopencm3/lib/libopencm3_stm32l4.a(timer_common_all.o)
 .debug_macro   0x000000000000288e      0xf6b /home/lubuntu/Documents/libOpenCM3/libopencm3/lib/libopencm3_stm32l4.a(timer_common_all.o)
 .debug_macro   0x00000000000037f9       0xd9 /home/lubuntu/Documents/libOpenCM3/libopencm3/lib/libopencm3_stm32l4.a(usart_common_all.o)
 .debug_macro   0x00000000000038d2       0x94 /home/lubuntu/Documents/libOpenCM3/libopencm3/lib/libopencm3_stm32l4.a(usart_common_all.o)
 .debug_macro   0x0000000000003966      0x55b /home/lubuntu/Documents/libOpenCM3/libopencm3/lib/libopencm3_stm32l4.a(usart_common_all.o)
 .debug_macro   0x0000000000003ec1       0x28 /home/lubuntu/Documents/libOpenCM3/libopencm3/lib/libopencm3_stm32l4.a(usart_common_all.o)
 .debug_macro   0x0000000000003ee9       0xc1 /home/lubuntu/Documents/libOpenCM3/libopencm3/lib/libopencm3_stm32l4.a(usart_common_v2.o)
 .debug_macro   0x0000000000003faa       0xd3 /home/lubuntu/Documents/libOpenCM3/libopencm3/lib/libopencm3_stm32l4.a(vector.o)
 .debug_macro   0x000000000000407d      0x452 /home/lubuntu/Documents/libOpenCM3/libopencm3/lib/libopencm3_stm32l4.a(vector.o)
 .debug_macro   0x00000000000044cf       0x6e /home/lubuntu/Documents/libOpenCM3/libopencm3/lib/libopencm3_stm32l4.a(vector.o)
 .debug_macro   0x000000000000453d      0x22c /home/lubuntu/Documents/libOpenCM3/libopencm3/lib/libopencm3_stm32l4.a(vector.o)

Cross Reference Table

Symbol                                            File
__assert                                          /home/lubuntu/Documents/ARMToolchain/gcc-arm-none-eabi-10.3-2021.10/bin/../lib/gcc/arm-none-eabi/10.3.1/../../../../arm-none-eabi/lib/thumb/v7e-m+fp/hard/libc_nano.a(lib_a-assert.o)
__assert_func                                     /home/lubuntu/Documents/ARMToolchain/gcc-arm-none-eabi-10.3-2021.10/bin/../lib/gcc/arm-none-eabi/10.3.1/../../../../arm-none-eabi/lib/thumb/v7e-m+fp/hard/libc_nano.a(lib_a-assert.o)
                                                  Build/m2a.o
__errno                                           /home/lubuntu/Documents/ARMToolchain/gcc-arm-none-eabi-10.3-2021.10/bin/../lib/gcc/arm-none-eabi/10.3.1/../../../../arm-none-eabi/lib/thumb/v7e-m+fp/hard/libc_nano.a(lib_a-errno.o)
                                                  Build/m2a.o
__fini_array_end                                  /home/lubuntu/Documents/libOpenCM3/libopencm3/lib/libopencm3_stm32l4.a(vector.o)
__fini_array_start                                /home/lubuntu/Documents/libOpenCM3/libopencm3/lib/libopencm3_stm32l4.a(vector.o)
__fp_lock_all                                     /home/lubuntu/Documents/ARMToolchain/gcc-arm-none-eabi-10.3-2021.10/bin/../lib/gcc/arm-none-eabi/10.3.1/../../../../arm-none-eabi/lib/thumb/v7e-m+fp/hard/libc_nano.a(lib_a-findfp.o)
__fp_unlock_all                                   /home/lubuntu/Documents/ARMToolchain/gcc-arm-none-eabi-10.3-2021.10/bin/../lib/gcc/arm-none-eabi/10.3.1/../../../../arm-none-eabi/lib/thumb/v7e-m+fp/hard/libc_nano.a(lib_a-findfp.o)
__init_array_end                                  /home/lubuntu/Documents/libOpenCM3/libopencm3/lib/libopencm3_stm32l4.a(vector.o)
__init_array_start                                /home/lubuntu/Documents/libOpenCM3/libopencm3/lib/libopencm3_stm32l4.a(vector.o)
__lock___arc4random_mutex                         /home/lubuntu/Documents/ARMToolchain/gcc-arm-none-eabi-10.3-2021.10/bin/../lib/gcc/arm-none-eabi/10.3.1/../../../../arm-none-eabi/lib/thumb/v7e-m+fp/hard/libc_nano.a(lib_a-lock.o)
__lock___at_quick_exit_mutex                      /home/lubuntu/Documents/ARMToolchain/gcc-arm-none-eabi-10.3-2021.10/bin/../lib/gcc/arm-none-eabi/10.3.1/../../../../arm-none-eabi/lib/thumb/v7e-m+fp/hard/libc_nano.a(lib_a-lock.o)
__lock___atexit_recursive_mutex                   /home/lubuntu/Documents/ARMToolchain/gcc-arm-none-eabi-10.3-2021.10/bin/../lib/gcc/arm-none-eabi/10.3.1/../../../../arm-none-eabi/lib/thumb/v7e-m+fp/hard/libc_nano.a(lib_a-lock.o)
__lock___dd_hash_mutex                            /home/lubuntu/Documents/ARMToolchain/gcc-arm-none-eabi-10.3-2021.10/bin/../lib/gcc/arm-none-eabi/10.3.1/../../../../arm-none-eabi/lib/thumb/v7e-m+fp/hard/libc_nano.a(lib_a-lock.o)
__lock___env_recursive_mutex                      /home/lubuntu/Documents/ARMToolchain/gcc-arm-none-eabi-10.3-2021.10/bin/../lib/gcc/arm-none-eabi/10.3.1/../../../../arm-none-eabi/lib/thumb/v7e-m+fp/hard/libc_nano.a(lib_a-lock.o)
__lock___malloc_recursive_mutex                   /home/lubuntu/Documents/ARMToolchain/gcc-arm-none-eabi-10.3-2021.10/bin/../lib/gcc/arm-none-eabi/10.3.1/../../../../arm-none-eabi/lib/thumb/v7e-m+fp/hard/libc_nano.a(lib_a-lock.o)
                                                  /home/lubuntu/Documents/ARMToolchain/gcc-arm-none-eabi-10.3-2021.10/bin/../lib/gcc/arm-none-eabi/10.3.1/../../../../arm-none-eabi/lib/thumb/v7e-m+fp/hard/libc_nano.a(lib_a-mlock.o)
__lock___sfp_recursive_mutex                      /home/lubuntu/Documents/ARMToolchain/gcc-arm-none-eabi-10.3-2021.10/bin/../lib/gcc/arm-none-eabi/10.3.1/../../../../arm-none-eabi/lib/thumb/v7e-m+fp/hard/libc_nano.a(lib_a-lock.o)
                                                  /home/lubuntu/Documents/ARMToolchain/gcc-arm-none-eabi-10.3-2021.10/bin/../lib/gcc/arm-none-eabi/10.3.1/../../../../arm-none-eabi/lib/thumb/v7e-m+fp/hard/libc_nano.a(lib_a-findfp.o)
__lock___sinit_recursive_mutex                    /home/lubuntu/Documents/ARMToolchain/gcc-arm-none-eabi-10.3-2021.10/bin/../lib/gcc/arm-none-eabi/10.3.1/../../../../arm-none-eabi/lib/thumb/v7e-m+fp/hard/libc_nano.a(lib_a-lock.o)
                                                  /home/lubuntu/Documents/ARMToolchain/gcc-arm-none-eabi-10.3-2021.10/bin/../lib/gcc/arm-none-eabi/10.3.1/../../../../arm-none-eabi/lib/thumb/v7e-m+fp/hard/libc_nano.a(lib_a-findfp.o)
__lock___tz_mutex                                 /home/lubuntu/Documents/ARMToolchain/gcc-arm-none-eabi-10.3-2021.10/bin/../lib/gcc/arm-none-eabi/10.3.1/../../../../arm-none-eabi/lib/thumb/v7e-m+fp/hard/libc_nano.a(lib_a-lock.o)
__malloc_free_list                                /home/lubuntu/Documents/ARMToolchain/gcc-arm-none-eabi-10.3-2021.10/bin/../lib/gcc/arm-none-eabi/10.3.1/../../../../arm-none-eabi/lib/thumb/v7e-m+fp/hard/libc_nano.a(lib_a-nano-mallocr.o)
                                                  /home/lubuntu/Documents/ARMToolchain/gcc-arm-none-eabi-10.3-2021.10/bin/../lib/gcc/arm-none-eabi/10.3.1/../../../../arm-none-eabi/lib/thumb/v7e-m+fp/hard/libc_nano.a(lib_a-nano-freer.o)
__malloc_lock                                     /home/lubuntu/Documents/ARMToolchain/gcc-arm-none-eabi-10.3-2021.10/bin/../lib/gcc/arm-none-eabi/10.3.1/../../../../arm-none-eabi/lib/thumb/v7e-m+fp/hard/libc_nano.a(lib_a-mlock.o)
                                                  /home/lubuntu/Documents/ARMToolchain/gcc-arm-none-eabi-10.3-2021.10/bin/../lib/gcc/arm-none-eabi/10.3.1/../../../../arm-none-eabi/lib/thumb/v7e-m+fp/hard/libc_nano.a(lib_a-nano-mallocr.o)
                                                  /home/lubuntu/Documents/ARMToolchain/gcc-arm-none-eabi-10.3-2021.10/bin/../lib/gcc/arm-none-eabi/10.3.1/../../../../arm-none-eabi/lib/thumb/v7e-m+fp/hard/libc_nano.a(lib_a-nano-freer.o)
__malloc_sbrk_start                               /home/lubuntu/Documents/ARMToolchain/gcc-arm-none-eabi-10.3-2021.10/bin/../lib/gcc/arm-none-eabi/10.3.1/../../../../arm-none-eabi/lib/thumb/v7e-m+fp/hard/libc_nano.a(lib_a-nano-mallocr.o)
__malloc_unlock                                   /home/lubuntu/Documents/ARMToolchain/gcc-arm-none-eabi-10.3-2021.10/bin/../lib/gcc/arm-none-eabi/10.3.1/../../../../arm-none-eabi/lib/thumb/v7e-m+fp/hard/libc_nano.a(lib_a-mlock.o)
                                                  /home/lubuntu/Documents/ARMToolchain/gcc-arm-none-eabi-10.3-2021.10/bin/../lib/gcc/arm-none-eabi/10.3.1/../../../../arm-none-eabi/lib/thumb/v7e-m+fp/hard/libc_nano.a(lib_a-nano-mallocr.o)
                                                  /home/lubuntu/Documents/ARMToolchain/gcc-arm-none-eabi-10.3-2021.10/bin/../lib/gcc/arm-none-eabi/10.3.1/../../../../arm-none-eabi/lib/thumb/v7e-m+fp/hard/libc_nano.a(lib_a-nano-freer.o)
__preinit_array_end                               /home/lubuntu/Documents/libOpenCM3/libopencm3/lib/libopencm3_stm32l4.a(vector.o)
__preinit_array_start                             /home/lubuntu/Documents/libOpenCM3/libopencm3/lib/libopencm3_stm32l4.a(vector.o)
__retarget_lock_acquire                           /home/lubuntu/Documents/ARMToolchain/gcc-arm-none-eabi-10.3-2021.10/bin/../lib/gcc/arm-none-eabi/10.3.1/../../../../arm-none-eabi/lib/thumb/v7e-m+fp/hard/libc_nano.a(lib_a-lock.o)
__retarget_lock_acquire_recursive                 /home/lubuntu/Documents/ARMToolchain/gcc-arm-none-eabi-10.3-2021.10/bin/../lib/gcc/arm-none-eabi/10.3.1/../../../../arm-none-eabi/lib/thumb/v7e-m+fp/hard/libc_nano.a(lib_a-lock.o)
                                                  /home/lubuntu/Documents/ARMToolchain/gcc-arm-none-eabi-10.3-2021.10/bin/../lib/gcc/arm-none-eabi/10.3.1/../../../../arm-none-eabi/lib/thumb/v7e-m+fp/hard/libc_nano.a(lib_a-mlock.o)
                                                  /home/lubuntu/Documents/ARMToolchain/gcc-arm-none-eabi-10.3-2021.10/bin/../lib/gcc/arm-none-eabi/10.3.1/../../../../arm-none-eabi/lib/thumb/v7e-m+fp/hard/libc_nano.a(lib_a-findfp.o)
                                                  /home/lubuntu/Documents/ARMToolchain/gcc-arm-none-eabi-10.3-2021.10/bin/../lib/gcc/arm-none-eabi/10.3.1/../../../../arm-none-eabi/lib/thumb/v7e-m+fp/hard/libc_nano.a(lib_a-fflush.o)
                                                  /home/lubuntu/Documents/ARMToolchain/gcc-arm-none-eabi-10.3-2021.10/bin/../lib/gcc/arm-none-eabi/10.3.1/../../../../arm-none-eabi/lib/thumb/v7e-m+fp/hard/libc_nano.a(lib_a-nano-vfprintf.o)
__retarget_lock_close                             /home/lubuntu/Documents/ARMToolchain/gcc-arm-none-eabi-10.3-2021.10/bin/../lib/gcc/arm-none-eabi/10.3.1/../../../../arm-none-eabi/lib/thumb/v7e-m+fp/hard/libc_nano.a(lib_a-lock.o)
__retarget_lock_close_recursive                   /home/lubuntu/Documents/ARMToolchain/gcc-arm-none-eabi-10.3-2021.10/bin/../lib/gcc/arm-none-eabi/10.3.1/../../../../arm-none-eabi/lib/thumb/v7e-m+fp/hard/libc_nano.a(lib_a-lock.o)
__retarget_lock_init                              /home/lubuntu/Documents/ARMToolchain/gcc-arm-none-eabi-10.3-2021.10/bin/../lib/gcc/arm-none-eabi/10.3.1/../../../../arm-none-eabi/lib/thumb/v7e-m+fp/hard/libc_nano.a(lib_a-lock.o)
__retarget_lock_init_recursive                    /home/lubuntu/Documents/ARMToolchain/gcc-arm-none-eabi-10.3-2021.10/bin/../lib/gcc/arm-none-eabi/10.3.1/../../../../arm-none-eabi/lib/thumb/v7e-m+fp/hard/libc_nano.a(lib_a-lock.o)
                                                  /home/lubuntu/Documents/ARMToolchain/gcc-arm-none-eabi-10.3-2021.10/bin/../lib/gcc/arm-none-eabi/10.3.1/../../../../arm-none-eabi/lib/thumb/v7e-m+fp/hard/libc_nano.a(lib_a-findfp.o)
__retarget_lock_release                           /home/lubuntu/Documents/ARMToolchain/gcc-arm-none-eabi-10.3-2021.10/bin/../lib/gcc/arm-none-eabi/10.3.1/../../../../arm-none-eabi/lib/thumb/v7e-m+fp/hard/libc_nano.a(lib_a-lock.o)
__retarget_lock_release_recursive                 /home/lubuntu/Documents/ARMToolchain/gcc-arm-none-eabi-10.3-2021.10/bin/../lib/gcc/arm-none-eabi/10.3.1/../../../../arm-none-eabi/lib/thumb/v7e-m+fp/hard/libc_nano.a(lib_a-lock.o)
                                                  /home/lubuntu/Documents/ARMToolchain/gcc-arm-none-eabi-10.3-2021.10/bin/../lib/gcc/arm-none-eabi/10.3.1/../../../../arm-none-eabi/lib/thumb/v7e-m+fp/hard/libc_nano.a(lib_a-mlock.o)
                                                  /home/lubuntu/Documents/ARMToolchain/gcc-arm-none-eabi-10.3-2021.10/bin/../lib/gcc/arm-none-eabi/10.3.1/../../../../arm-none-eabi/lib/thumb/v7e-m+fp/hard/libc_nano.a(lib_a-findfp.o)
                                                  /home/lubuntu/Documents/ARMToolchain/gcc-arm-none-eabi-10.3-2021.10/bin/../lib/gcc/arm-none-eabi/10.3.1/../../../../arm-none-eabi/lib/thumb/v7e-m+fp/hard/libc_nano.a(lib_a-fflush.o)
                                                  /home/lubuntu/Documents/ARMToolchain/gcc-arm-none-eabi-10.3-2021.10/bin/../lib/gcc/arm-none-eabi/10.3.1/../../../../arm-none-eabi/lib/thumb/v7e-m+fp/hard/libc_nano.a(lib_a-nano-vfprintf.o)
__retarget_lock_try_acquire                       /home/lubuntu/Documents/ARMToolchain/gcc-arm-none-eabi-10.3-2021.10/bin/../lib/gcc/arm-none-eabi/10.3.1/../../../../arm-none-eabi/lib/thumb/v7e-m+fp/hard/libc_nano.a(lib_a-lock.o)
__retarget_lock_try_acquire_recursive             /home/lubuntu/Documents/ARMToolchain/gcc-arm-none-eabi-10.3-2021.10/bin/../lib/gcc/arm-none-eabi/10.3.1/../../../../arm-none-eabi/lib/thumb/v7e-m+fp/hard/libc_nano.a(lib_a-lock.o)
__sclose                                          /home/lubuntu/Documents/ARMToolchain/gcc-arm-none-eabi-10.3-2021.10/bin/../lib/gcc/arm-none-eabi/10.3.1/../../../../arm-none-eabi/lib/thumb/v7e-m+fp/hard/libc_nano.a(lib_a-stdio.o)
                                                  /home/lubuntu/Documents/ARMToolchain/gcc-arm-none-eabi-10.3-2021.10/bin/../lib/gcc/arm-none-eabi/10.3.1/../../../../arm-none-eabi/lib/thumb/v7e-m+fp/hard/libc_nano.a(lib_a-findfp.o)
__seofread                                        /home/lubuntu/Documents/ARMToolchain/gcc-arm-none-eabi-10.3-2021.10/bin/../lib/gcc/arm-none-eabi/10.3.1/../../../../arm-none-eabi/lib/thumb/v7e-m+fp/hard/libc_nano.a(lib_a-stdio.o)
__sf_fake_stderr                                  /home/lubuntu/Documents/ARMToolchain/gcc-arm-none-eabi-10.3-2021.10/bin/../lib/gcc/arm-none-eabi/10.3.1/../../../../arm-none-eabi/lib/thumb/v7e-m+fp/hard/libc_nano.a(lib_a-findfp.o)
                                                  /home/lubuntu/Documents/ARMToolchain/gcc-arm-none-eabi-10.3-2021.10/bin/../lib/gcc/arm-none-eabi/10.3.1/../../../../arm-none-eabi/lib/thumb/v7e-m+fp/hard/libc_nano.a(lib_a-fflush.o)
                                                  /home/lubuntu/Documents/ARMToolchain/gcc-arm-none-eabi-10.3-2021.10/bin/../lib/gcc/arm-none-eabi/10.3.1/../../../../arm-none-eabi/lib/thumb/v7e-m+fp/hard/libc_nano.a(lib_a-wsetup.o)
                                                  /home/lubuntu/Documents/ARMToolchain/gcc-arm-none-eabi-10.3-2021.10/bin/../lib/gcc/arm-none-eabi/10.3.1/../../../../arm-none-eabi/lib/thumb/v7e-m+fp/hard/libc_nano.a(lib_a-wbuf.o)
                                                  /home/lubuntu/Documents/ARMToolchain/gcc-arm-none-eabi-10.3-2021.10/bin/../lib/gcc/arm-none-eabi/10.3.1/../../../../arm-none-eabi/lib/thumb/v7e-m+fp/hard/libc_nano.a(lib_a-nano-vfprintf.o)
                                                  /home/lubuntu/Documents/ARMToolchain/gcc-arm-none-eabi-10.3-2021.10/bin/../lib/gcc/arm-none-eabi/10.3.1/../../../../arm-none-eabi/lib/thumb/v7e-m+fp/hard/libc_nano.a(lib_a-impure.o)
__sf_fake_stdin                                   /home/lubuntu/Documents/ARMToolchain/gcc-arm-none-eabi-10.3-2021.10/bin/../lib/gcc/arm-none-eabi/10.3.1/../../../../arm-none-eabi/lib/thumb/v7e-m+fp/hard/libc_nano.a(lib_a-findfp.o)
                                                  /home/lubuntu/Documents/ARMToolchain/gcc-arm-none-eabi-10.3-2021.10/bin/../lib/gcc/arm-none-eabi/10.3.1/../../../../arm-none-eabi/lib/thumb/v7e-m+fp/hard/libc_nano.a(lib_a-fflush.o)
                                                  /home/lubuntu/Documents/ARMToolchain/gcc-arm-none-eabi-10.3-2021.10/bin/../lib/gcc/arm-none-eabi/10.3.1/../../../../arm-none-eabi/lib/thumb/v7e-m+fp/hard/libc_nano.a(lib_a-wsetup.o)
                                                  /home/lubuntu/Documents/ARMToolchain/gcc-arm-none-eabi-10.3-2021.10/bin/../lib/gcc/arm-none-eabi/10.3.1/../../../../arm-none-eabi/lib/thumb/v7e-m+fp/hard/libc_nano.a(lib_a-wbuf.o)
                                                  /home/lubuntu/Documents/ARMToolchain/gcc-arm-none-eabi-10.3-2021.10/bin/../lib/gcc/arm-none-eabi/10.3.1/../../../../arm-none-eabi/lib/thumb/v7e-m+fp/hard/libc_nano.a(lib_a-nano-vfprintf.o)
                                                  /home/lubuntu/Documents/ARMToolchain/gcc-arm-none-eabi-10.3-2021.10/bin/../lib/gcc/arm-none-eabi/10.3.1/../../../../arm-none-eabi/lib/thumb/v7e-m+fp/hard/libc_nano.a(lib_a-impure.o)
__sf_fake_stdout                                  /home/lubuntu/Documents/ARMToolchain/gcc-arm-none-eabi-10.3-2021.10/bin/../lib/gcc/arm-none-eabi/10.3.1/../../../../arm-none-eabi/lib/thumb/v7e-m+fp/hard/libc_nano.a(lib_a-findfp.o)
                                                  /home/lubuntu/Documents/ARMToolchain/gcc-arm-none-eabi-10.3-2021.10/bin/../lib/gcc/arm-none-eabi/10.3.1/../../../../arm-none-eabi/lib/thumb/v7e-m+fp/hard/libc_nano.a(lib_a-fflush.o)
                                                  /home/lubuntu/Documents/ARMToolchain/gcc-arm-none-eabi-10.3-2021.10/bin/../lib/gcc/arm-none-eabi/10.3.1/../../../../arm-none-eabi/lib/thumb/v7e-m+fp/hard/libc_nano.a(lib_a-wsetup.o)
                                                  /home/lubuntu/Documents/ARMToolchain/gcc-arm-none-eabi-10.3-2021.10/bin/../lib/gcc/arm-none-eabi/10.3.1/../../../../arm-none-eabi/lib/thumb/v7e-m+fp/hard/libc_nano.a(lib_a-wbuf.o)
                                                  /home/lubuntu/Documents/ARMToolchain/gcc-arm-none-eabi-10.3-2021.10/bin/../lib/gcc/arm-none-eabi/10.3.1/../../../../arm-none-eabi/lib/thumb/v7e-m+fp/hard/libc_nano.a(lib_a-nano-vfprintf.o)
                                                  /home/lubuntu/Documents/ARMToolchain/gcc-arm-none-eabi-10.3-2021.10/bin/../lib/gcc/arm-none-eabi/10.3.1/../../../../arm-none-eabi/lib/thumb/v7e-m+fp/hard/libc_nano.a(lib_a-impure.o)
__sflush_r                                        /home/lubuntu/Documents/ARMToolchain/gcc-arm-none-eabi-10.3-2021.10/bin/../lib/gcc/arm-none-eabi/10.3.1/../../../../arm-none-eabi/lib/thumb/v7e-m+fp/hard/libc_nano.a(lib_a-fflush.o)
__sfmoreglue                                      /home/lubuntu/Documents/ARMToolchain/gcc-arm-none-eabi-10.3-2021.10/bin/../lib/gcc/arm-none-eabi/10.3.1/../../../../arm-none-eabi/lib/thumb/v7e-m+fp/hard/libc_nano.a(lib_a-findfp.o)
__sfp                                             /home/lubuntu/Documents/ARMToolchain/gcc-arm-none-eabi-10.3-2021.10/bin/../lib/gcc/arm-none-eabi/10.3.1/../../../../arm-none-eabi/lib/thumb/v7e-m+fp/hard/libc_nano.a(lib_a-findfp.o)
__sfp_lock_acquire                                /home/lubuntu/Documents/ARMToolchain/gcc-arm-none-eabi-10.3-2021.10/bin/../lib/gcc/arm-none-eabi/10.3.1/../../../../arm-none-eabi/lib/thumb/v7e-m+fp/hard/libc_nano.a(lib_a-findfp.o)
__sfp_lock_release                                /home/lubuntu/Documents/ARMToolchain/gcc-arm-none-eabi-10.3-2021.10/bin/../lib/gcc/arm-none-eabi/10.3.1/../../../../arm-none-eabi/lib/thumb/v7e-m+fp/hard/libc_nano.a(lib_a-findfp.o)
__sfputs_r                                        /home/lubuntu/Documents/ARMToolchain/gcc-arm-none-eabi-10.3-2021.10/bin/../lib/gcc/arm-none-eabi/10.3.1/../../../../arm-none-eabi/lib/thumb/v7e-m+fp/hard/libc_nano.a(lib_a-nano-vfprintf.o)
__sfvwrite_r                                      /home/lubuntu/Documents/ARMToolchain/gcc-arm-none-eabi-10.3-2021.10/bin/../lib/gcc/arm-none-eabi/10.3.1/../../../../arm-none-eabi/lib/thumb/v7e-m+fp/hard/libc_nano.a(lib_a-fvwrite.o)
                                                  /home/lubuntu/Documents/ARMToolchain/gcc-arm-none-eabi-10.3-2021.10/bin/../lib/gcc/arm-none-eabi/10.3.1/../../../../arm-none-eabi/lib/thumb/v7e-m+fp/hard/libc_nano.a(lib_a-nano-vfprintf.o)
__sigtramp                                        /home/lubuntu/Documents/ARMToolchain/gcc-arm-none-eabi-10.3-2021.10/bin/../lib/gcc/arm-none-eabi/10.3.1/../../../../arm-none-eabi/lib/thumb/v7e-m+fp/hard/libc_nano.a(lib_a-signal.o)
__sigtramp_r                                      /home/lubuntu/Documents/ARMToolchain/gcc-arm-none-eabi-10.3-2021.10/bin/../lib/gcc/arm-none-eabi/10.3.1/../../../../arm-none-eabi/lib/thumb/v7e-m+fp/hard/libc_nano.a(lib_a-signal.o)
__sinit                                           /home/lubuntu/Documents/ARMToolchain/gcc-arm-none-eabi-10.3-2021.10/bin/../lib/gcc/arm-none-eabi/10.3.1/../../../../arm-none-eabi/lib/thumb/v7e-m+fp/hard/libc_nano.a(lib_a-findfp.o)
                                                  /home/lubuntu/Documents/ARMToolchain/gcc-arm-none-eabi-10.3-2021.10/bin/../lib/gcc/arm-none-eabi/10.3.1/../../../../arm-none-eabi/lib/thumb/v7e-m+fp/hard/libc_nano.a(lib_a-fflush.o)
                                                  /home/lubuntu/Documents/ARMToolchain/gcc-arm-none-eabi-10.3-2021.10/bin/../lib/gcc/arm-none-eabi/10.3.1/../../../../arm-none-eabi/lib/thumb/v7e-m+fp/hard/libc_nano.a(lib_a-wsetup.o)
                                                  /home/lubuntu/Documents/ARMToolchain/gcc-arm-none-eabi-10.3-2021.10/bin/../lib/gcc/arm-none-eabi/10.3.1/../../../../arm-none-eabi/lib/thumb/v7e-m+fp/hard/libc_nano.a(lib_a-wbuf.o)
                                                  /home/lubuntu/Documents/ARMToolchain/gcc-arm-none-eabi-10.3-2021.10/bin/../lib/gcc/arm-none-eabi/10.3.1/../../../../arm-none-eabi/lib/thumb/v7e-m+fp/hard/libc_nano.a(lib_a-printf.o)
                                                  /home/lubuntu/Documents/ARMToolchain/gcc-arm-none-eabi-10.3-2021.10/bin/../lib/gcc/arm-none-eabi/10.3.1/../../../../arm-none-eabi/lib/thumb/v7e-m+fp/hard/libc_nano.a(lib_a-nano-vfprintf.o)
__sinit_lock_acquire                              /home/lubuntu/Documents/ARMToolchain/gcc-arm-none-eabi-10.3-2021.10/bin/../lib/gcc/arm-none-eabi/10.3.1/../../../../arm-none-eabi/lib/thumb/v7e-m+fp/hard/libc_nano.a(lib_a-findfp.o)
__sinit_lock_release                              /home/lubuntu/Documents/ARMToolchain/gcc-arm-none-eabi-10.3-2021.10/bin/../lib/gcc/arm-none-eabi/10.3.1/../../../../arm-none-eabi/lib/thumb/v7e-m+fp/hard/libc_nano.a(lib_a-findfp.o)
__smakebuf_r                                      /home/lubuntu/Documents/ARMToolchain/gcc-arm-none-eabi-10.3-2021.10/bin/../lib/gcc/arm-none-eabi/10.3.1/../../../../arm-none-eabi/lib/thumb/v7e-m+fp/hard/libc_nano.a(lib_a-makebuf.o)
                                                  /home/lubuntu/Documents/ARMToolchain/gcc-arm-none-eabi-10.3-2021.10/bin/../lib/gcc/arm-none-eabi/10.3.1/../../../../arm-none-eabi/lib/thumb/v7e-m+fp/hard/libc_nano.a(lib_a-wsetup.o)
__sprint_r                                        /home/lubuntu/Documents/ARMToolchain/gcc-arm-none-eabi-10.3-2021.10/bin/../lib/gcc/arm-none-eabi/10.3.1/../../../../arm-none-eabi/lib/thumb/v7e-m+fp/hard/libc_nano.a(lib_a-nano-vfprintf.o)
__sread                                           /home/lubuntu/Documents/ARMToolchain/gcc-arm-none-eabi-10.3-2021.10/bin/../lib/gcc/arm-none-eabi/10.3.1/../../../../arm-none-eabi/lib/thumb/v7e-m+fp/hard/libc_nano.a(lib_a-stdio.o)
                                                  /home/lubuntu/Documents/ARMToolchain/gcc-arm-none-eabi-10.3-2021.10/bin/../lib/gcc/arm-none-eabi/10.3.1/../../../../arm-none-eabi/lib/thumb/v7e-m+fp/hard/libc_nano.a(lib_a-findfp.o)
__sseek                                           /home/lubuntu/Documents/ARMToolchain/gcc-arm-none-eabi-10.3-2021.10/bin/../lib/gcc/arm-none-eabi/10.3.1/../../../../arm-none-eabi/lib/thumb/v7e-m+fp/hard/libc_nano.a(lib_a-stdio.o)
                                                  /home/lubuntu/Documents/ARMToolchain/gcc-arm-none-eabi-10.3-2021.10/bin/../lib/gcc/arm-none-eabi/10.3.1/../../../../arm-none-eabi/lib/thumb/v7e-m+fp/hard/libc_nano.a(lib_a-findfp.o)
__swbuf                                           /home/lubuntu/Documents/ARMToolchain/gcc-arm-none-eabi-10.3-2021.10/bin/../lib/gcc/arm-none-eabi/10.3.1/../../../../arm-none-eabi/lib/thumb/v7e-m+fp/hard/libc_nano.a(lib_a-wbuf.o)
__swbuf_r                                         /home/lubuntu/Documents/ARMToolchain/gcc-arm-none-eabi-10.3-2021.10/bin/../lib/gcc/arm-none-eabi/10.3.1/../../../../arm-none-eabi/lib/thumb/v7e-m+fp/hard/libc_nano.a(lib_a-wbuf.o)
                                                  /home/lubuntu/Documents/ARMToolchain/gcc-arm-none-eabi-10.3-2021.10/bin/../lib/gcc/arm-none-eabi/10.3.1/../../../../arm-none-eabi/lib/thumb/v7e-m+fp/hard/libc_nano.a(lib_a-nano-vfprintf.o)
__swhatbuf_r                                      /home/lubuntu/Documents/ARMToolchain/gcc-arm-none-eabi-10.3-2021.10/bin/../lib/gcc/arm-none-eabi/10.3.1/../../../../arm-none-eabi/lib/thumb/v7e-m+fp/hard/libc_nano.a(lib_a-makebuf.o)
__swrite                                          /home/lubuntu/Documents/ARMToolchain/gcc-arm-none-eabi-10.3-2021.10/bin/../lib/gcc/arm-none-eabi/10.3.1/../../../../arm-none-eabi/lib/thumb/v7e-m+fp/hard/libc_nano.a(lib_a-stdio.o)
                                                  /home/lubuntu/Documents/ARMToolchain/gcc-arm-none-eabi-10.3-2021.10/bin/../lib/gcc/arm-none-eabi/10.3.1/../../../../arm-none-eabi/lib/thumb/v7e-m+fp/hard/libc_nano.a(lib_a-findfp.o)
__swsetup_r                                       /home/lubuntu/Documents/ARMToolchain/gcc-arm-none-eabi-10.3-2021.10/bin/../lib/gcc/arm-none-eabi/10.3.1/../../../../arm-none-eabi/lib/thumb/v7e-m+fp/hard/libc_nano.a(lib_a-wsetup.o)
                                                  /home/lubuntu/Documents/ARMToolchain/gcc-arm-none-eabi-10.3-2021.10/bin/../lib/gcc/arm-none-eabi/10.3.1/../../../../arm-none-eabi/lib/thumb/v7e-m+fp/hard/libc_nano.a(lib_a-fvwrite.o)
                                                  /home/lubuntu/Documents/ARMToolchain/gcc-arm-none-eabi-10.3-2021.10/bin/../lib/gcc/arm-none-eabi/10.3.1/../../../../arm-none-eabi/lib/thumb/v7e-m+fp/hard/libc_nano.a(lib_a-wbuf.o)
                                                  /home/lubuntu/Documents/ARMToolchain/gcc-arm-none-eabi-10.3-2021.10/bin/../lib/gcc/arm-none-eabi/10.3.1/../../../../arm-none-eabi/lib/thumb/v7e-m+fp/hard/libc_nano.a(lib_a-nano-vfprintf.o)
_cleanup                                          /home/lubuntu/Documents/ARMToolchain/gcc-arm-none-eabi-10.3-2021.10/bin/../lib/gcc/arm-none-eabi/10.3.1/../../../../arm-none-eabi/lib/thumb/v7e-m+fp/hard/libc_nano.a(lib_a-findfp.o)
_cleanup_r                                        /home/lubuntu/Documents/ARMToolchain/gcc-arm-none-eabi-10.3-2021.10/bin/../lib/gcc/arm-none-eabi/10.3.1/../../../../arm-none-eabi/lib/thumb/v7e-m+fp/hard/libc_nano.a(lib_a-findfp.o)
                                                  /home/lubuntu/Documents/ARMToolchain/gcc-arm-none-eabi-10.3-2021.10/bin/../lib/gcc/arm-none-eabi/10.3.1/../../../../arm-none-eabi/lib/thumb/v7e-m+fp/hard/libc_nano.a(lib_a-makebuf.o)
_close                                            /home/lubuntu/Documents/ARMToolchain/gcc-arm-none-eabi-10.3-2021.10/bin/../lib/gcc/arm-none-eabi/10.3.1/../../../../arm-none-eabi/lib/thumb/v7e-m+fp/hard/libnosys.a(close.o)
                                                  /home/lubuntu/Documents/ARMToolchain/gcc-arm-none-eabi-10.3-2021.10/bin/../lib/gcc/arm-none-eabi/10.3.1/../../../../arm-none-eabi/lib/thumb/v7e-m+fp/hard/libc_nano.a(lib_a-closer.o)
_close_r                                          /home/lubuntu/Documents/ARMToolchain/gcc-arm-none-eabi-10.3-2021.10/bin/../lib/gcc/arm-none-eabi/10.3.1/../../../../arm-none-eabi/lib/thumb/v7e-m+fp/hard/libc_nano.a(lib_a-closer.o)
                                                  /home/lubuntu/Documents/ARMToolchain/gcc-arm-none-eabi-10.3-2021.10/bin/../lib/gcc/arm-none-eabi/10.3.1/../../../../arm-none-eabi/lib/thumb/v7e-m+fp/hard/libc_nano.a(lib_a-stdio.o)
_data                                             /home/lubuntu/Documents/libOpenCM3/libopencm3/lib/libopencm3_stm32l4.a(vector.o)
_data_loadaddr                                    /home/lubuntu/Documents/libOpenCM3/libopencm3/lib/libopencm3_stm32l4.a(vector.o)
_ebss                                             /home/lubuntu/Documents/libOpenCM3/libopencm3/lib/libopencm3_stm32l4.a(vector.o)
_edata                                            /home/lubuntu/Documents/libOpenCM3/libopencm3/lib/libopencm3_stm32l4.a(vector.o)
_exit                                             /home/lubuntu/Documents/ARMToolchain/gcc-arm-none-eabi-10.3-2021.10/bin/../lib/gcc/arm-none-eabi/10.3.1/../../../../arm-none-eabi/lib/thumb/v7e-m+fp/hard/libnosys.a(_exit.o)
                                                  /home/lubuntu/Documents/ARMToolchain/gcc-arm-none-eabi-10.3-2021.10/bin/../lib/gcc/arm-none-eabi/10.3.1/../../../../arm-none-eabi/lib/thumb/v7e-m+fp/hard/libc_nano.a(lib_a-abort.o)
_fflush_r                                         /home/lubuntu/Documents/ARMToolchain/gcc-arm-none-eabi-10.3-2021.10/bin/../lib/gcc/arm-none-eabi/10.3.1/../../../../arm-none-eabi/lib/thumb/v7e-m+fp/hard/libc_nano.a(lib_a-fflush.o)
                                                  /home/lubuntu/Documents/ARMToolchain/gcc-arm-none-eabi-10.3-2021.10/bin/../lib/gcc/arm-none-eabi/10.3.1/../../../../arm-none-eabi/lib/thumb/v7e-m+fp/hard/libc_nano.a(lib_a-fvwrite.o)
                                                  /home/lubuntu/Documents/ARMToolchain/gcc-arm-none-eabi-10.3-2021.10/bin/../lib/gcc/arm-none-eabi/10.3.1/../../../../arm-none-eabi/lib/thumb/v7e-m+fp/hard/libc_nano.a(lib_a-findfp.o)
                                                  /home/lubuntu/Documents/ARMToolchain/gcc-arm-none-eabi-10.3-2021.10/bin/../lib/gcc/arm-none-eabi/10.3.1/../../../../arm-none-eabi/lib/thumb/v7e-m+fp/hard/libc_nano.a(lib_a-wbuf.o)
_fiprintf_r                                       /home/lubuntu/Documents/ARMToolchain/gcc-arm-none-eabi-10.3-2021.10/bin/../lib/gcc/arm-none-eabi/10.3.1/../../../../arm-none-eabi/lib/thumb/v7e-m+fp/hard/libc_nano.a(lib_a-fprintf.o)
_fprintf_r                                        /home/lubuntu/Documents/ARMToolchain/gcc-arm-none-eabi-10.3-2021.10/bin/../lib/gcc/arm-none-eabi/10.3.1/../../../../arm-none-eabi/lib/thumb/v7e-m+fp/hard/libc_nano.a(lib_a-fprintf.o)
_free_r                                           /home/lubuntu/Documents/ARMToolchain/gcc-arm-none-eabi-10.3-2021.10/bin/../lib/gcc/arm-none-eabi/10.3.1/../../../../arm-none-eabi/lib/thumb/v7e-m+fp/hard/libc_nano.a(lib_a-nano-freer.o)
                                                  /home/lubuntu/Documents/ARMToolchain/gcc-arm-none-eabi-10.3-2021.10/bin/../lib/gcc/arm-none-eabi/10.3.1/../../../../arm-none-eabi/lib/thumb/v7e-m+fp/hard/libc_nano.a(lib_a-reent.o)
                                                  /home/lubuntu/Documents/ARMToolchain/gcc-arm-none-eabi-10.3-2021.10/bin/../lib/gcc/arm-none-eabi/10.3.1/../../../../arm-none-eabi/lib/thumb/v7e-m+fp/hard/libc_nano.a(lib_a-nano-reallocr.o)
                                                  /home/lubuntu/Documents/ARMToolchain/gcc-arm-none-eabi-10.3-2021.10/bin/../lib/gcc/arm-none-eabi/10.3.1/../../../../arm-none-eabi/lib/thumb/v7e-m+fp/hard/libc_nano.a(lib_a-fvwrite.o)
                                                  /home/lubuntu/Documents/ARMToolchain/gcc-arm-none-eabi-10.3-2021.10/bin/../lib/gcc/arm-none-eabi/10.3.1/../../../../arm-none-eabi/lib/thumb/v7e-m+fp/hard/libc_nano.a(lib_a-fflush.o)
                                                  /home/lubuntu/Documents/ARMToolchain/gcc-arm-none-eabi-10.3-2021.10/bin/../lib/gcc/arm-none-eabi/10.3.1/../../../../arm-none-eabi/lib/thumb/v7e-m+fp/hard/libc_nano.a(lib_a-wsetup.o)
_fstat                                            /home/lubuntu/Documents/ARMToolchain/gcc-arm-none-eabi-10.3-2021.10/bin/../lib/gcc/arm-none-eabi/10.3.1/../../../../arm-none-eabi/lib/thumb/v7e-m+fp/hard/libnosys.a(fstat.o)
                                                  /home/lubuntu/Documents/ARMToolchain/gcc-arm-none-eabi-10.3-2021.10/bin/../lib/gcc/arm-none-eabi/10.3.1/../../../../arm-none-eabi/lib/thumb/v7e-m+fp/hard/libc_nano.a(lib_a-fstatr.o)
_fstat_r                                          /home/lubuntu/Documents/ARMToolchain/gcc-arm-none-eabi-10.3-2021.10/bin/../lib/gcc/arm-none-eabi/10.3.1/../../../../arm-none-eabi/lib/thumb/v7e-m+fp/hard/libc_nano.a(lib_a-fstatr.o)
                                                  /home/lubuntu/Documents/ARMToolchain/gcc-arm-none-eabi-10.3-2021.10/bin/../lib/gcc/arm-none-eabi/10.3.1/../../../../arm-none-eabi/lib/thumb/v7e-m+fp/hard/libc_nano.a(lib_a-makebuf.o)
_fwalk                                            /home/lubuntu/Documents/ARMToolchain/gcc-arm-none-eabi-10.3-2021.10/bin/../lib/gcc/arm-none-eabi/10.3.1/../../../../arm-none-eabi/lib/thumb/v7e-m+fp/hard/libc_nano.a(lib_a-fwalk.o)
                                                  /home/lubuntu/Documents/ARMToolchain/gcc-arm-none-eabi-10.3-2021.10/bin/../lib/gcc/arm-none-eabi/10.3.1/../../../../arm-none-eabi/lib/thumb/v7e-m+fp/hard/libc_nano.a(lib_a-findfp.o)
_fwalk_reent                                      /home/lubuntu/Documents/ARMToolchain/gcc-arm-none-eabi-10.3-2021.10/bin/../lib/gcc/arm-none-eabi/10.3.1/../../../../arm-none-eabi/lib/thumb/v7e-m+fp/hard/libc_nano.a(lib_a-fwalk.o)
                                                  /home/lubuntu/Documents/ARMToolchain/gcc-arm-none-eabi-10.3-2021.10/bin/../lib/gcc/arm-none-eabi/10.3.1/../../../../arm-none-eabi/lib/thumb/v7e-m+fp/hard/libc_nano.a(lib_a-findfp.o)
                                                  /home/lubuntu/Documents/ARMToolchain/gcc-arm-none-eabi-10.3-2021.10/bin/../lib/gcc/arm-none-eabi/10.3.1/../../../../arm-none-eabi/lib/thumb/v7e-m+fp/hard/libc_nano.a(lib_a-fflush.o)
_getpid                                           /home/lubuntu/Documents/ARMToolchain/gcc-arm-none-eabi-10.3-2021.10/bin/../lib/gcc/arm-none-eabi/10.3.1/../../../../arm-none-eabi/lib/thumb/v7e-m+fp/hard/libnosys.a(getpid.o)
                                                  /home/lubuntu/Documents/ARMToolchain/gcc-arm-none-eabi-10.3-2021.10/bin/../lib/gcc/arm-none-eabi/10.3.1/../../../../arm-none-eabi/lib/thumb/v7e-m+fp/hard/libc_nano.a(lib_a-signalr.o)
_getpid_r                                         /home/lubuntu/Documents/ARMToolchain/gcc-arm-none-eabi-10.3-2021.10/bin/../lib/gcc/arm-none-eabi/10.3.1/../../../../arm-none-eabi/lib/thumb/v7e-m+fp/hard/libc_nano.a(lib_a-signalr.o)
                                                  /home/lubuntu/Documents/ARMToolchain/gcc-arm-none-eabi-10.3-2021.10/bin/../lib/gcc/arm-none-eabi/10.3.1/../../../../arm-none-eabi/lib/thumb/v7e-m+fp/hard/libc_nano.a(lib_a-signal.o)
_global_impure_ptr                                /home/lubuntu/Documents/ARMToolchain/gcc-arm-none-eabi-10.3-2021.10/bin/../lib/gcc/arm-none-eabi/10.3.1/../../../../arm-none-eabi/lib/thumb/v7e-m+fp/hard/libc_nano.a(lib_a-impure.o)
                                                  /home/lubuntu/Documents/ARMToolchain/gcc-arm-none-eabi-10.3-2021.10/bin/../lib/gcc/arm-none-eabi/10.3.1/../../../../arm-none-eabi/lib/thumb/v7e-m+fp/hard/libc_nano.a(lib_a-findfp.o)
                                                  /home/lubuntu/Documents/ARMToolchain/gcc-arm-none-eabi-10.3-2021.10/bin/../lib/gcc/arm-none-eabi/10.3.1/../../../../arm-none-eabi/lib/thumb/v7e-m+fp/hard/libc_nano.a(lib_a-fflush.o)
_impure_ptr                                       /home/lubuntu/Documents/ARMToolchain/gcc-arm-none-eabi-10.3-2021.10/bin/../lib/gcc/arm-none-eabi/10.3.1/../../../../arm-none-eabi/lib/thumb/v7e-m+fp/hard/libc_nano.a(lib_a-impure.o)
                                                  /home/lubuntu/Documents/ARMToolchain/gcc-arm-none-eabi-10.3-2021.10/bin/../lib/gcc/arm-none-eabi/10.3.1/../../../../arm-none-eabi/lib/thumb/v7e-m+fp/hard/libc_nano.a(lib_a-reent.o)
                                                  /home/lubuntu/Documents/ARMToolchain/gcc-arm-none-eabi-10.3-2021.10/bin/../lib/gcc/arm-none-eabi/10.3.1/../../../../arm-none-eabi/lib/thumb/v7e-m+fp/hard/libc_nano.a(lib_a-signal.o)
                                                  /home/lubuntu/Documents/ARMToolchain/gcc-arm-none-eabi-10.3-2021.10/bin/../lib/gcc/arm-none-eabi/10.3.1/../../../../arm-none-eabi/lib/thumb/v7e-m+fp/hard/libc_nano.a(lib_a-findfp.o)
                                                  /home/lubuntu/Documents/ARMToolchain/gcc-arm-none-eabi-10.3-2021.10/bin/../lib/gcc/arm-none-eabi/10.3.1/../../../../arm-none-eabi/lib/thumb/v7e-m+fp/hard/libc_nano.a(lib_a-fflush.o)
                                                  /home/lubuntu/Documents/ARMToolchain/gcc-arm-none-eabi-10.3-2021.10/bin/../lib/gcc/arm-none-eabi/10.3.1/../../../../arm-none-eabi/lib/thumb/v7e-m+fp/hard/libc_nano.a(lib_a-wsetup.o)
                                                  /home/lubuntu/Documents/ARMToolchain/gcc-arm-none-eabi-10.3-2021.10/bin/../lib/gcc/arm-none-eabi/10.3.1/../../../../arm-none-eabi/lib/thumb/v7e-m+fp/hard/libc_nano.a(lib_a-wbuf.o)
                                                  /home/lubuntu/Documents/ARMToolchain/gcc-arm-none-eabi-10.3-2021.10/bin/../lib/gcc/arm-none-eabi/10.3.1/../../../../arm-none-eabi/lib/thumb/v7e-m+fp/hard/libc_nano.a(lib_a-printf.o)
                                                  /home/lubuntu/Documents/ARMToolchain/gcc-arm-none-eabi-10.3-2021.10/bin/../lib/gcc/arm-none-eabi/10.3.1/../../../../arm-none-eabi/lib/thumb/v7e-m+fp/hard/libc_nano.a(lib_a-nano-vfprintf.o)
                                                  /home/lubuntu/Documents/ARMToolchain/gcc-arm-none-eabi-10.3-2021.10/bin/../lib/gcc/arm-none-eabi/10.3.1/../../../../arm-none-eabi/lib/thumb/v7e-m+fp/hard/libc_nano.a(lib_a-fprintf.o)
                                                  /home/lubuntu/Documents/ARMToolchain/gcc-arm-none-eabi-10.3-2021.10/bin/../lib/gcc/arm-none-eabi/10.3.1/../../../../arm-none-eabi/lib/thumb/v7e-m+fp/hard/libc_nano.a(lib_a-errno.o)
                                                  /home/lubuntu/Documents/ARMToolchain/gcc-arm-none-eabi-10.3-2021.10/bin/../lib/gcc/arm-none-eabi/10.3.1/../../../../arm-none-eabi/lib/thumb/v7e-m+fp/hard/libc_nano.a(lib_a-assert.o)
_init_signal                                      /home/lubuntu/Documents/ARMToolchain/gcc-arm-none-eabi-10.3-2021.10/bin/../lib/gcc/arm-none-eabi/10.3.1/../../../../arm-none-eabi/lib/thumb/v7e-m+fp/hard/libc_nano.a(lib_a-signal.o)
_init_signal_r                                    /home/lubuntu/Documents/ARMToolchain/gcc-arm-none-eabi-10.3-2021.10/bin/../lib/gcc/arm-none-eabi/10.3.1/../../../../arm-none-eabi/lib/thumb/v7e-m+fp/hard/libc_nano.a(lib_a-signal.o)
_iprintf_r                                        /home/lubuntu/Documents/ARMToolchain/gcc-arm-none-eabi-10.3-2021.10/bin/../lib/gcc/arm-none-eabi/10.3.1/../../../../arm-none-eabi/lib/thumb/v7e-m+fp/hard/libc_nano.a(lib_a-printf.o)
_isatty                                           /home/lubuntu/Documents/ARMToolchain/gcc-arm-none-eabi-10.3-2021.10/bin/../lib/gcc/arm-none-eabi/10.3.1/../../../../arm-none-eabi/lib/thumb/v7e-m+fp/hard/libnosys.a(isatty.o)
                                                  /home/lubuntu/Documents/ARMToolchain/gcc-arm-none-eabi-10.3-2021.10/bin/../lib/gcc/arm-none-eabi/10.3.1/../../../../arm-none-eabi/lib/thumb/v7e-m+fp/hard/libc_nano.a(lib_a-isattyr.o)
_isatty_r                                         /home/lubuntu/Documents/ARMToolchain/gcc-arm-none-eabi-10.3-2021.10/bin/../lib/gcc/arm-none-eabi/10.3.1/../../../../arm-none-eabi/lib/thumb/v7e-m+fp/hard/libc_nano.a(lib_a-isattyr.o)
                                                  /home/lubuntu/Documents/ARMToolchain/gcc-arm-none-eabi-10.3-2021.10/bin/../lib/gcc/arm-none-eabi/10.3.1/../../../../arm-none-eabi/lib/thumb/v7e-m+fp/hard/libc_nano.a(lib_a-makebuf.o)
_kill                                             /home/lubuntu/Documents/ARMToolchain/gcc-arm-none-eabi-10.3-2021.10/bin/../lib/gcc/arm-none-eabi/10.3.1/../../../../arm-none-eabi/lib/thumb/v7e-m+fp/hard/libnosys.a(kill.o)
                                                  /home/lubuntu/Documents/ARMToolchain/gcc-arm-none-eabi-10.3-2021.10/bin/../lib/gcc/arm-none-eabi/10.3.1/../../../../arm-none-eabi/lib/thumb/v7e-m+fp/hard/libc_nano.a(lib_a-signalr.o)
_kill_r                                           /home/lubuntu/Documents/ARMToolchain/gcc-arm-none-eabi-10.3-2021.10/bin/../lib/gcc/arm-none-eabi/10.3.1/../../../../arm-none-eabi/lib/thumb/v7e-m+fp/hard/libc_nano.a(lib_a-signalr.o)
                                                  /home/lubuntu/Documents/ARMToolchain/gcc-arm-none-eabi-10.3-2021.10/bin/../lib/gcc/arm-none-eabi/10.3.1/../../../../arm-none-eabi/lib/thumb/v7e-m+fp/hard/libc_nano.a(lib_a-signal.o)
_lseek                                            /home/lubuntu/Documents/ARMToolchain/gcc-arm-none-eabi-10.3-2021.10/bin/../lib/gcc/arm-none-eabi/10.3.1/../../../../arm-none-eabi/lib/thumb/v7e-m+fp/hard/libnosys.a(lseek.o)
                                                  /home/lubuntu/Documents/ARMToolchain/gcc-arm-none-eabi-10.3-2021.10/bin/../lib/gcc/arm-none-eabi/10.3.1/../../../../arm-none-eabi/lib/thumb/v7e-m+fp/hard/libc_nano.a(lib_a-lseekr.o)
_lseek_r                                          /home/lubuntu/Documents/ARMToolchain/gcc-arm-none-eabi-10.3-2021.10/bin/../lib/gcc/arm-none-eabi/10.3.1/../../../../arm-none-eabi/lib/thumb/v7e-m+fp/hard/libc_nano.a(lib_a-lseekr.o)
                                                  /home/lubuntu/Documents/ARMToolchain/gcc-arm-none-eabi-10.3-2021.10/bin/../lib/gcc/arm-none-eabi/10.3.1/../../../../arm-none-eabi/lib/thumb/v7e-m+fp/hard/libc_nano.a(lib_a-stdio.o)
_malloc_r                                         /home/lubuntu/Documents/ARMToolchain/gcc-arm-none-eabi-10.3-2021.10/bin/../lib/gcc/arm-none-eabi/10.3.1/../../../../arm-none-eabi/lib/thumb/v7e-m+fp/hard/libc_nano.a(lib_a-nano-mallocr.o)
                                                  /home/lubuntu/Documents/ARMToolchain/gcc-arm-none-eabi-10.3-2021.10/bin/../lib/gcc/arm-none-eabi/10.3.1/../../../../arm-none-eabi/lib/thumb/v7e-m+fp/hard/libc_nano.a(lib_a-signal.o)
                                                  /home/lubuntu/Documents/ARMToolchain/gcc-arm-none-eabi-10.3-2021.10/bin/../lib/gcc/arm-none-eabi/10.3.1/../../../../arm-none-eabi/lib/thumb/v7e-m+fp/hard/libc_nano.a(lib_a-nano-reallocr.o)
                                                  /home/lubuntu/Documents/ARMToolchain/gcc-arm-none-eabi-10.3-2021.10/bin/../lib/gcc/arm-none-eabi/10.3.1/../../../../arm-none-eabi/lib/thumb/v7e-m+fp/hard/libc_nano.a(lib_a-makebuf.o)
                                                  /home/lubuntu/Documents/ARMToolchain/gcc-arm-none-eabi-10.3-2021.10/bin/../lib/gcc/arm-none-eabi/10.3.1/../../../../arm-none-eabi/lib/thumb/v7e-m+fp/hard/libc_nano.a(lib_a-fvwrite.o)
                                                  /home/lubuntu/Documents/ARMToolchain/gcc-arm-none-eabi-10.3-2021.10/bin/../lib/gcc/arm-none-eabi/10.3.1/../../../../arm-none-eabi/lib/thumb/v7e-m+fp/hard/libc_nano.a(lib_a-findfp.o)
_malloc_usable_size_r                             /home/lubuntu/Documents/ARMToolchain/gcc-arm-none-eabi-10.3-2021.10/bin/../lib/gcc/arm-none-eabi/10.3.1/../../../../arm-none-eabi/lib/thumb/v7e-m+fp/hard/libc_nano.a(lib_a-nano-msizer.o)
                                                  /home/lubuntu/Documents/ARMToolchain/gcc-arm-none-eabi-10.3-2021.10/bin/../lib/gcc/arm-none-eabi/10.3.1/../../../../arm-none-eabi/lib/thumb/v7e-m+fp/hard/libc_nano.a(lib_a-nano-reallocr.o)
_printf_common                                    /home/lubuntu/Documents/ARMToolchain/gcc-arm-none-eabi-10.3-2021.10/bin/../lib/gcc/arm-none-eabi/10.3.1/../../../../arm-none-eabi/lib/thumb/v7e-m+fp/hard/libc_nano.a(lib_a-nano-vfprintf_i.o)
_printf_float                                     /home/lubuntu/Documents/ARMToolchain/gcc-arm-none-eabi-10.3-2021.10/bin/../lib/gcc/arm-none-eabi/10.3.1/../../../../arm-none-eabi/lib/thumb/v7e-m+fp/hard/libc_nano.a(lib_a-nano-vfprintf.o)
_printf_i                                         /home/lubuntu/Documents/ARMToolchain/gcc-arm-none-eabi-10.3-2021.10/bin/../lib/gcc/arm-none-eabi/10.3.1/../../../../arm-none-eabi/lib/thumb/v7e-m+fp/hard/libc_nano.a(lib_a-nano-vfprintf_i.o)
                                                  /home/lubuntu/Documents/ARMToolchain/gcc-arm-none-eabi-10.3-2021.10/bin/../lib/gcc/arm-none-eabi/10.3.1/../../../../arm-none-eabi/lib/thumb/v7e-m+fp/hard/libc_nano.a(lib_a-nano-vfprintf.o)
_printf_r                                         /home/lubuntu/Documents/ARMToolchain/gcc-arm-none-eabi-10.3-2021.10/bin/../lib/gcc/arm-none-eabi/10.3.1/../../../../arm-none-eabi/lib/thumb/v7e-m+fp/hard/libc_nano.a(lib_a-printf.o)
_raise_r                                          /home/lubuntu/Documents/ARMToolchain/gcc-arm-none-eabi-10.3-2021.10/bin/../lib/gcc/arm-none-eabi/10.3.1/../../../../arm-none-eabi/lib/thumb/v7e-m+fp/hard/libc_nano.a(lib_a-signal.o)
_read                                             /home/lubuntu/Documents/ARMToolchain/gcc-arm-none-eabi-10.3-2021.10/bin/../lib/gcc/arm-none-eabi/10.3.1/../../../../arm-none-eabi/lib/thumb/v7e-m+fp/hard/libnosys.a(read.o)
                                                  /home/lubuntu/Documents/ARMToolchain/gcc-arm-none-eabi-10.3-2021.10/bin/../lib/gcc/arm-none-eabi/10.3.1/../../../../arm-none-eabi/lib/thumb/v7e-m+fp/hard/libc_nano.a(lib_a-readr.o)
_read_r                                           /home/lubuntu/Documents/ARMToolchain/gcc-arm-none-eabi-10.3-2021.10/bin/../lib/gcc/arm-none-eabi/10.3.1/../../../../arm-none-eabi/lib/thumb/v7e-m+fp/hard/libc_nano.a(lib_a-readr.o)
                                                  /home/lubuntu/Documents/ARMToolchain/gcc-arm-none-eabi-10.3-2021.10/bin/../lib/gcc/arm-none-eabi/10.3.1/../../../../arm-none-eabi/lib/thumb/v7e-m+fp/hard/libc_nano.a(lib_a-stdio.o)
_realloc_r                                        /home/lubuntu/Documents/ARMToolchain/gcc-arm-none-eabi-10.3-2021.10/bin/../lib/gcc/arm-none-eabi/10.3.1/../../../../arm-none-eabi/lib/thumb/v7e-m+fp/hard/libc_nano.a(lib_a-nano-reallocr.o)
                                                  /home/lubuntu/Documents/ARMToolchain/gcc-arm-none-eabi-10.3-2021.10/bin/../lib/gcc/arm-none-eabi/10.3.1/../../../../arm-none-eabi/lib/thumb/v7e-m+fp/hard/libc_nano.a(lib_a-fvwrite.o)
_reclaim_reent                                    /home/lubuntu/Documents/ARMToolchain/gcc-arm-none-eabi-10.3-2021.10/bin/../lib/gcc/arm-none-eabi/10.3.1/../../../../arm-none-eabi/lib/thumb/v7e-m+fp/hard/libc_nano.a(lib_a-reent.o)
_sbrk                                             /home/lubuntu/Documents/ARMToolchain/gcc-arm-none-eabi-10.3-2021.10/bin/../lib/gcc/arm-none-eabi/10.3.1/../../../../arm-none-eabi/lib/thumb/v7e-m+fp/hard/libnosys.a(sbrk.o)
                                                  /home/lubuntu/Documents/ARMToolchain/gcc-arm-none-eabi-10.3-2021.10/bin/../lib/gcc/arm-none-eabi/10.3.1/../../../../arm-none-eabi/lib/thumb/v7e-m+fp/hard/libc_nano.a(lib_a-sbrkr.o)
_sbrk_r                                           /home/lubuntu/Documents/ARMToolchain/gcc-arm-none-eabi-10.3-2021.10/bin/../lib/gcc/arm-none-eabi/10.3.1/../../../../arm-none-eabi/lib/thumb/v7e-m+fp/hard/libc_nano.a(lib_a-sbrkr.o)
                                                  /home/lubuntu/Documents/ARMToolchain/gcc-arm-none-eabi-10.3-2021.10/bin/../lib/gcc/arm-none-eabi/10.3.1/../../../../arm-none-eabi/lib/thumb/v7e-m+fp/hard/libc_nano.a(lib_a-nano-mallocr.o)
_signal_r                                         /home/lubuntu/Documents/ARMToolchain/gcc-arm-none-eabi-10.3-2021.10/bin/../lib/gcc/arm-none-eabi/10.3.1/../../../../arm-none-eabi/lib/thumb/v7e-m+fp/hard/libc_nano.a(lib_a-signal.o)
_stack                                            /home/lubuntu/Documents/libOpenCM3/libopencm3/lib/libopencm3_stm32l4.a(vector.o)
_vfiprintf_r                                      /home/lubuntu/Documents/ARMToolchain/gcc-arm-none-eabi-10.3-2021.10/bin/../lib/gcc/arm-none-eabi/10.3.1/../../../../arm-none-eabi/lib/thumb/v7e-m+fp/hard/libc_nano.a(lib_a-nano-vfprintf.o)
_vfprintf_r                                       /home/lubuntu/Documents/ARMToolchain/gcc-arm-none-eabi-10.3-2021.10/bin/../lib/gcc/arm-none-eabi/10.3.1/../../../../arm-none-eabi/lib/thumb/v7e-m+fp/hard/libc_nano.a(lib_a-nano-vfprintf.o)
                                                  /home/lubuntu/Documents/ARMToolchain/gcc-arm-none-eabi-10.3-2021.10/bin/../lib/gcc/arm-none-eabi/10.3.1/../../../../arm-none-eabi/lib/thumb/v7e-m+fp/hard/libc_nano.a(lib_a-printf.o)
                                                  /home/lubuntu/Documents/ARMToolchain/gcc-arm-none-eabi-10.3-2021.10/bin/../lib/gcc/arm-none-eabi/10.3.1/../../../../arm-none-eabi/lib/thumb/v7e-m+fp/hard/libc_nano.a(lib_a-fprintf.o)
_write                                            Build/m2a.o
                                                  /home/lubuntu/Documents/ARMToolchain/gcc-arm-none-eabi-10.3-2021.10/bin/../lib/gcc/arm-none-eabi/10.3.1/../../../../arm-none-eabi/lib/thumb/v7e-m+fp/hard/libc_nano.a(lib_a-writer.o)
_write_r                                          /home/lubuntu/Documents/ARMToolchain/gcc-arm-none-eabi-10.3-2021.10/bin/../lib/gcc/arm-none-eabi/10.3.1/../../../../arm-none-eabi/lib/thumb/v7e-m+fp/hard/libc_nano.a(lib_a-writer.o)
                                                  /home/lubuntu/Documents/ARMToolchain/gcc-arm-none-eabi-10.3-2021.10/bin/../lib/gcc/arm-none-eabi/10.3.1/../../../../arm-none-eabi/lib/thumb/v7e-m+fp/hard/libc_nano.a(lib_a-stdio.o)
abort                                             /home/lubuntu/Documents/ARMToolchain/gcc-arm-none-eabi-10.3-2021.10/bin/../lib/gcc/arm-none-eabi/10.3.1/../../../../arm-none-eabi/lib/thumb/v7e-m+fp/hard/libc_nano.a(lib_a-abort.o)
                                                  /home/lubuntu/Documents/ARMToolchain/gcc-arm-none-eabi-10.3-2021.10/bin/../lib/gcc/arm-none-eabi/10.3.1/../../../../arm-none-eabi/lib/thumb/v7e-m+fp/hard/libc_nano.a(lib_a-assert.o)
ac_CIPHER                                         Build/m2a.o
adc1_2_isr                                        /home/lubuntu/Documents/libOpenCM3/libopencm3/lib/libopencm3_stm32l4.a(vector.o)
adc3_isr                                          /home/lubuntu/Documents/libOpenCM3/libopencm3/lib/libopencm3_stm32l4.a(vector.o)
aes_isr                                           /home/lubuntu/Documents/libOpenCM3/libopencm3/lib/libopencm3_stm32l4.a(vector.o)
blocking_handler                                  /home/lubuntu/Documents/libOpenCM3/libopencm3/lib/libopencm3_stm32l4.a(vector.o)
bus_fault_handler                                 /home/lubuntu/Documents/libOpenCM3/libopencm3/lib/libopencm3_stm32l4.a(vector.o)
can1_rx0_isr                                      /home/lubuntu/Documents/libOpenCM3/libopencm3/lib/libopencm3_stm32l4.a(vector.o)
can1_rx1_isr                                      /home/lubuntu/Documents/libOpenCM3/libopencm3/lib/libopencm3_stm32l4.a(vector.o)
can1_sce_isr                                      /home/lubuntu/Documents/libOpenCM3/libopencm3/lib/libopencm3_stm32l4.a(vector.o)
can1_tx_isr                                       /home/lubuntu/Documents/libOpenCM3/libopencm3/lib/libopencm3_stm32l4.a(vector.o)
can2_rx0_isr                                      /home/lubuntu/Documents/libOpenCM3/libopencm3/lib/libopencm3_stm32l4.a(vector.o)
can2_rx1_isr                                      /home/lubuntu/Documents/libOpenCM3/libopencm3/lib/libopencm3_stm32l4.a(vector.o)
can2_sce_isr                                      /home/lubuntu/Documents/libOpenCM3/libopencm3/lib/libopencm3_stm32l4.a(vector.o)
can2_tx_isr                                       /home/lubuntu/Documents/libOpenCM3/libopencm3/lib/libopencm3_stm32l4.a(vector.o)
cleanup_glue                                      /home/lubuntu/Documents/ARMToolchain/gcc-arm-none-eabi-10.3-2021.10/bin/../lib/gcc/arm-none-eabi/10.3.1/../../../../arm-none-eabi/lib/thumb/v7e-m+fp/hard/libc_nano.a(lib_a-reent.o)
clock_setup                                       Build/m2a.o
cm3_assert_failed                                 /home/lubuntu/Documents/libOpenCM3/libopencm3/lib/libopencm3_stm32l4.a(assert.o)
                                                  /home/lubuntu/Documents/libOpenCM3/libopencm3/lib/libopencm3_stm32l4.a(rcc.o)
cm3_assert_failed_verbose                         /home/lubuntu/Documents/libOpenCM3/libopencm3/lib/libopencm3_stm32l4.a(assert.o)
comp_isr                                          /home/lubuntu/Documents/libOpenCM3/libopencm3/lib/libopencm3_stm32l4.a(vector.o)
dcmi_isr                                          /home/lubuntu/Documents/libOpenCM3/libopencm3/lib/libopencm3_stm32l4.a(vector.o)
debug_monitor_handler                             /home/lubuntu/Documents/libOpenCM3/libopencm3/lib/libopencm3_stm32l4.a(vector.o)
dfsdm0_isr                                        /home/lubuntu/Documents/libOpenCM3/libopencm3/lib/libopencm3_stm32l4.a(vector.o)
dfsdm1_isr                                        /home/lubuntu/Documents/libOpenCM3/libopencm3/lib/libopencm3_stm32l4.a(vector.o)
dfsdm2_isr                                        /home/lubuntu/Documents/libOpenCM3/libopencm3/lib/libopencm3_stm32l4.a(vector.o)
dfsdm3_isr                                        /home/lubuntu/Documents/libOpenCM3/libopencm3/lib/libopencm3_stm32l4.a(vector.o)
dma1_channel1_isr                                 /home/lubuntu/Documents/libOpenCM3/libopencm3/lib/libopencm3_stm32l4.a(vector.o)
dma1_channel2_isr                                 /home/lubuntu/Documents/libOpenCM3/libopencm3/lib/libopencm3_stm32l4.a(vector.o)
dma1_channel3_isr                                 /home/lubuntu/Documents/libOpenCM3/libopencm3/lib/libopencm3_stm32l4.a(vector.o)
dma1_channel4_isr                                 /home/lubuntu/Documents/libOpenCM3/libopencm3/lib/libopencm3_stm32l4.a(vector.o)
dma1_channel5_isr                                 /home/lubuntu/Documents/libOpenCM3/libopencm3/lib/libopencm3_stm32l4.a(vector.o)
dma1_channel6_isr                                 /home/lubuntu/Documents/libOpenCM3/libopencm3/lib/libopencm3_stm32l4.a(vector.o)
dma1_channel7_isr                                 /home/lubuntu/Documents/libOpenCM3/libopencm3/lib/libopencm3_stm32l4.a(vector.o)
dma2_channel1_isr                                 /home/lubuntu/Documents/libOpenCM3/libopencm3/lib/libopencm3_stm32l4.a(vector.o)
dma2_channel2_isr                                 /home/lubuntu/Documents/libOpenCM3/libopencm3/lib/libopencm3_stm32l4.a(vector.o)
dma2_channel3_isr                                 /home/lubuntu/Documents/libOpenCM3/libopencm3/lib/libopencm3_stm32l4.a(vector.o)
dma2_channel4_isr                                 /home/lubuntu/Documents/libOpenCM3/libopencm3/lib/libopencm3_stm32l4.a(vector.o)
dma2_channel5_isr                                 /home/lubuntu/Documents/libOpenCM3/libopencm3/lib/libopencm3_stm32l4.a(vector.o)
dma2_channel6_isr                                 /home/lubuntu/Documents/libOpenCM3/libopencm3/lib/libopencm3_stm32l4.a(vector.o)
dma2_channel7_isr                                 /home/lubuntu/Documents/libOpenCM3/libopencm3/lib/libopencm3_stm32l4.a(vector.o)
dma2d_isr                                         /home/lubuntu/Documents/libOpenCM3/libopencm3/lib/libopencm3_stm32l4.a(vector.o)
end                                               /home/lubuntu/Documents/ARMToolchain/gcc-arm-none-eabi-10.3-2021.10/bin/../lib/gcc/arm-none-eabi/10.3.1/../../../../arm-none-eabi/lib/thumb/v7e-m+fp/hard/libnosys.a(sbrk.o)
errno                                             /home/lubuntu/Documents/ARMToolchain/gcc-arm-none-eabi-10.3-2021.10/bin/../lib/gcc/arm-none-eabi/10.3.1/../../../../arm-none-eabi/lib/thumb/v7e-m+fp/hard/libc_nano.a(lib_a-reent.o)
                                                  /home/lubuntu/Documents/ARMToolchain/gcc-arm-none-eabi-10.3-2021.10/bin/../lib/gcc/arm-none-eabi/10.3.1/../../../../arm-none-eabi/lib/thumb/v7e-m+fp/hard/libnosys.a(read.o)
                                                  /home/lubuntu/Documents/ARMToolchain/gcc-arm-none-eabi-10.3-2021.10/bin/../lib/gcc/arm-none-eabi/10.3.1/../../../../arm-none-eabi/lib/thumb/v7e-m+fp/hard/libnosys.a(lseek.o)
                                                  /home/lubuntu/Documents/ARMToolchain/gcc-arm-none-eabi-10.3-2021.10/bin/../lib/gcc/arm-none-eabi/10.3.1/../../../../arm-none-eabi/lib/thumb/v7e-m+fp/hard/libnosys.a(kill.o)
                                                  /home/lubuntu/Documents/ARMToolchain/gcc-arm-none-eabi-10.3-2021.10/bin/../lib/gcc/arm-none-eabi/10.3.1/../../../../arm-none-eabi/lib/thumb/v7e-m+fp/hard/libnosys.a(isatty.o)
                                                  /home/lubuntu/Documents/ARMToolchain/gcc-arm-none-eabi-10.3-2021.10/bin/../lib/gcc/arm-none-eabi/10.3.1/../../../../arm-none-eabi/lib/thumb/v7e-m+fp/hard/libnosys.a(getpid.o)
                                                  /home/lubuntu/Documents/ARMToolchain/gcc-arm-none-eabi-10.3-2021.10/bin/../lib/gcc/arm-none-eabi/10.3.1/../../../../arm-none-eabi/lib/thumb/v7e-m+fp/hard/libnosys.a(fstat.o)
                                                  /home/lubuntu/Documents/ARMToolchain/gcc-arm-none-eabi-10.3-2021.10/bin/../lib/gcc/arm-none-eabi/10.3.1/../../../../arm-none-eabi/lib/thumb/v7e-m+fp/hard/libnosys.a(close.o)
                                                  /home/lubuntu/Documents/ARMToolchain/gcc-arm-none-eabi-10.3-2021.10/bin/../lib/gcc/arm-none-eabi/10.3.1/../../../../arm-none-eabi/lib/thumb/v7e-m+fp/hard/libc_nano.a(lib_a-readr.o)
                                                  /home/lubuntu/Documents/ARMToolchain/gcc-arm-none-eabi-10.3-2021.10/bin/../lib/gcc/arm-none-eabi/10.3.1/../../../../arm-none-eabi/lib/thumb/v7e-m+fp/hard/libc_nano.a(lib_a-lseekr.o)
                                                  /home/lubuntu/Documents/ARMToolchain/gcc-arm-none-eabi-10.3-2021.10/bin/../lib/gcc/arm-none-eabi/10.3.1/../../../../arm-none-eabi/lib/thumb/v7e-m+fp/hard/libc_nano.a(lib_a-isattyr.o)
                                                  /home/lubuntu/Documents/ARMToolchain/gcc-arm-none-eabi-10.3-2021.10/bin/../lib/gcc/arm-none-eabi/10.3.1/../../../../arm-none-eabi/lib/thumb/v7e-m+fp/hard/libc_nano.a(lib_a-fstatr.o)
                                                  /home/lubuntu/Documents/ARMToolchain/gcc-arm-none-eabi-10.3-2021.10/bin/../lib/gcc/arm-none-eabi/10.3.1/../../../../arm-none-eabi/lib/thumb/v7e-m+fp/hard/libc_nano.a(lib_a-closer.o)
                                                  /home/lubuntu/Documents/ARMToolchain/gcc-arm-none-eabi-10.3-2021.10/bin/../lib/gcc/arm-none-eabi/10.3.1/../../../../arm-none-eabi/lib/thumb/v7e-m+fp/hard/libc_nano.a(lib_a-writer.o)
                                                  /home/lubuntu/Documents/ARMToolchain/gcc-arm-none-eabi-10.3-2021.10/bin/../lib/gcc/arm-none-eabi/10.3.1/../../../../arm-none-eabi/lib/thumb/v7e-m+fp/hard/libc_nano.a(lib_a-signalr.o)
                                                  /home/lubuntu/Documents/ARMToolchain/gcc-arm-none-eabi-10.3-2021.10/bin/../lib/gcc/arm-none-eabi/10.3.1/../../../../arm-none-eabi/lib/thumb/v7e-m+fp/hard/libc_nano.a(lib_a-sbrkr.o)
exti0_isr                                         /home/lubuntu/Documents/libOpenCM3/libopencm3/lib/libopencm3_stm32l4.a(vector.o)
exti15_10_isr                                     /home/lubuntu/Documents/libOpenCM3/libopencm3/lib/libopencm3_stm32l4.a(vector.o)
exti1_isr                                         /home/lubuntu/Documents/libOpenCM3/libopencm3/lib/libopencm3_stm32l4.a(vector.o)
exti2_isr                                         /home/lubuntu/Documents/libOpenCM3/libopencm3/lib/libopencm3_stm32l4.a(vector.o)
exti3_isr                                         /home/lubuntu/Documents/libOpenCM3/libopencm3/lib/libopencm3_stm32l4.a(vector.o)
exti4_isr                                         /home/lubuntu/Documents/libOpenCM3/libopencm3/lib/libopencm3_stm32l4.a(vector.o)
exti9_5_isr                                       /home/lubuntu/Documents/libOpenCM3/libopencm3/lib/libopencm3_stm32l4.a(vector.o)
fflush                                            /home/lubuntu/Documents/ARMToolchain/gcc-arm-none-eabi-10.3-2021.10/bin/../lib/gcc/arm-none-eabi/10.3.1/../../../../arm-none-eabi/lib/thumb/v7e-m+fp/hard/libc_nano.a(lib_a-fflush.o)
fiprintf                                          /home/lubuntu/Documents/ARMToolchain/gcc-arm-none-eabi-10.3-2021.10/bin/../lib/gcc/arm-none-eabi/10.3.1/../../../../arm-none-eabi/lib/thumb/v7e-m+fp/hard/libc_nano.a(lib_a-fprintf.o)
                                                  /home/lubuntu/Documents/ARMToolchain/gcc-arm-none-eabi-10.3-2021.10/bin/../lib/gcc/arm-none-eabi/10.3.1/../../../../arm-none-eabi/lib/thumb/v7e-m+fp/hard/libc_nano.a(lib_a-assert.o)
flash_isr                                         /home/lubuntu/Documents/libOpenCM3/libopencm3/lib/libopencm3_stm32l4.a(vector.o)
fmc_isr                                           /home/lubuntu/Documents/libOpenCM3/libopencm3/lib/libopencm3_stm32l4.a(vector.o)
fn_circBuffCapacity                               Build/m2a.o
fn_circBuffEmpty                                  Build/m2a.o
fn_circBuffFull                                   Build/m2a.o
fn_circBuffGet                                    Build/m2a.o
fn_circBuffGetMostRecent                          Build/m2a.o
fn_circBuffInit                                   Build/m2a.o
fn_circBuffPut                                    Build/m2a.o
fn_circBuffReset                                  Build/m2a.o
fn_circBuffSize                                   Build/m2a.o
fn_convertToCaps                                  Build/m2a.o
fn_decryptText                                    Build/m2a.o
fn_encryptText                                    Build/m2a.o
fprintf                                           /home/lubuntu/Documents/ARMToolchain/gcc-arm-none-eabi-10.3-2021.10/bin/../lib/gcc/arm-none-eabi/10.3.1/../../../../arm-none-eabi/lib/thumb/v7e-m+fp/hard/libc_nano.a(lib_a-fprintf.o)
fpu_isr                                           /home/lubuntu/Documents/libOpenCM3/libopencm3/lib/libopencm3_stm32l4.a(vector.o)
gpio_clear                                        /home/lubuntu/Documents/libOpenCM3/libopencm3/lib/libopencm3_stm32l4.a(gpio_common_all.o)
                                                  Build/m2a.o
gpio_get                                          /home/lubuntu/Documents/libOpenCM3/libopencm3/lib/libopencm3_stm32l4.a(gpio_common_all.o)
                                                  Build/m2a.o
gpio_mode_setup                                   /home/lubuntu/Documents/libOpenCM3/libopencm3/lib/libopencm3_stm32l4.a(gpio_common_f0234.o)
                                                  Build/m2a.o
gpio_port_config_lock                             /home/lubuntu/Documents/libOpenCM3/libopencm3/lib/libopencm3_stm32l4.a(gpio_common_all.o)
gpio_port_read                                    /home/lubuntu/Documents/libOpenCM3/libopencm3/lib/libopencm3_stm32l4.a(gpio_common_all.o)
gpio_port_write                                   /home/lubuntu/Documents/libOpenCM3/libopencm3/lib/libopencm3_stm32l4.a(gpio_common_all.o)
gpio_set                                          /home/lubuntu/Documents/libOpenCM3/libopencm3/lib/libopencm3_stm32l4.a(gpio_common_all.o)
gpio_set_af                                       /home/lubuntu/Documents/libOpenCM3/libopencm3/lib/libopencm3_stm32l4.a(gpio_common_f0234.o)
                                                  Build/m2a.o
gpio_set_output_options                           /home/lubuntu/Documents/libOpenCM3/libopencm3/lib/libopencm3_stm32l4.a(gpio_common_f0234.o)
gpio_toggle                                       /home/lubuntu/Documents/libOpenCM3/libopencm3/lib/libopencm3_stm32l4.a(gpio_common_all.o)
                                                  Build/m2a.o
hard_fault_handler                                /home/lubuntu/Documents/libOpenCM3/libopencm3/lib/libopencm3_stm32l4.a(vector.o)
hash_crs_isr                                      /home/lubuntu/Documents/libOpenCM3/libopencm3/lib/libopencm3_stm32l4.a(vector.o)
i2c1_er_isr                                       /home/lubuntu/Documents/libOpenCM3/libopencm3/lib/libopencm3_stm32l4.a(vector.o)
i2c1_ev_isr                                       /home/lubuntu/Documents/libOpenCM3/libopencm3/lib/libopencm3_stm32l4.a(vector.o)
i2c2_er_isr                                       /home/lubuntu/Documents/libOpenCM3/libopencm3/lib/libopencm3_stm32l4.a(vector.o)
i2c2_ev_isr                                       /home/lubuntu/Documents/libOpenCM3/libopencm3/lib/libopencm3_stm32l4.a(vector.o)
i2c3_er_isr                                       /home/lubuntu/Documents/libOpenCM3/libopencm3/lib/libopencm3_stm32l4.a(vector.o)
i2c3_ev_isr                                       /home/lubuntu/Documents/libOpenCM3/libopencm3/lib/libopencm3_stm32l4.a(vector.o)
i2c4_er_isr                                       /home/lubuntu/Documents/libOpenCM3/libopencm3/lib/libopencm3_stm32l4.a(vector.o)
i2c4_ev_isr                                       /home/lubuntu/Documents/libOpenCM3/libopencm3/lib/libopencm3_stm32l4.a(vector.o)
iprintf                                           /home/lubuntu/Documents/ARMToolchain/gcc-arm-none-eabi-10.3-2021.10/bin/../lib/gcc/arm-none-eabi/10.3.1/../../../../arm-none-eabi/lib/thumb/v7e-m+fp/hard/libc_nano.a(lib_a-printf.o)
lcd_isr                                           /home/lubuntu/Documents/libOpenCM3/libopencm3/lib/libopencm3_stm32l4.a(vector.o)
lptim1_isr                                        /home/lubuntu/Documents/libOpenCM3/libopencm3/lib/libopencm3_stm32l4.a(vector.o)
lptim2_isr                                        /home/lubuntu/Documents/libOpenCM3/libopencm3/lib/libopencm3_stm32l4.a(vector.o)
lpuart1_isr                                       /home/lubuntu/Documents/libOpenCM3/libopencm3/lib/libopencm3_stm32l4.a(vector.o)
main                                              Build/m2a.o
                                                  /home/lubuntu/Documents/libOpenCM3/libopencm3/lib/libopencm3_stm32l4.a(vector.o)
mem_manage_handler                                /home/lubuntu/Documents/libOpenCM3/libopencm3/lib/libopencm3_stm32l4.a(vector.o)
memchr                                            /home/lubuntu/Documents/ARMToolchain/gcc-arm-none-eabi-10.3-2021.10/bin/../lib/gcc/arm-none-eabi/10.3.1/../../../../arm-none-eabi/lib/thumb/v7e-m+fp/hard/libc_nano.a(lib_a-memchr.o)
                                                  /home/lubuntu/Documents/ARMToolchain/gcc-arm-none-eabi-10.3-2021.10/bin/../lib/gcc/arm-none-eabi/10.3.1/../../../../arm-none-eabi/lib/thumb/v7e-m+fp/hard/libc_nano.a(lib_a-fvwrite.o)
                                                  /home/lubuntu/Documents/ARMToolchain/gcc-arm-none-eabi-10.3-2021.10/bin/../lib/gcc/arm-none-eabi/10.3.1/../../../../arm-none-eabi/lib/thumb/v7e-m+fp/hard/libc_nano.a(lib_a-nano-vfprintf_i.o)
                                                  /home/lubuntu/Documents/ARMToolchain/gcc-arm-none-eabi-10.3-2021.10/bin/../lib/gcc/arm-none-eabi/10.3.1/../../../../arm-none-eabi/lib/thumb/v7e-m+fp/hard/libc_nano.a(lib_a-nano-vfprintf.o)
memcpy                                            /home/lubuntu/Documents/ARMToolchain/gcc-arm-none-eabi-10.3-2021.10/bin/../lib/gcc/arm-none-eabi/10.3.1/../../../../arm-none-eabi/lib/thumb/v7e-m+fp/hard/libc_nano.a(lib_a-memcpy-stub.o)
                                                  /home/lubuntu/Documents/ARMToolchain/gcc-arm-none-eabi-10.3-2021.10/bin/../lib/gcc/arm-none-eabi/10.3.1/../../../../arm-none-eabi/lib/thumb/v7e-m+fp/hard/libc_nano.a(lib_a-nano-reallocr.o)
                                                  /home/lubuntu/Documents/ARMToolchain/gcc-arm-none-eabi-10.3-2021.10/bin/../lib/gcc/arm-none-eabi/10.3.1/../../../../arm-none-eabi/lib/thumb/v7e-m+fp/hard/libc_nano.a(lib_a-fvwrite.o)
memmove                                           /home/lubuntu/Documents/ARMToolchain/gcc-arm-none-eabi-10.3-2021.10/bin/../lib/gcc/arm-none-eabi/10.3.1/../../../../arm-none-eabi/lib/thumb/v7e-m+fp/hard/libc_nano.a(lib_a-memmove.o)
                                                  /home/lubuntu/Documents/ARMToolchain/gcc-arm-none-eabi-10.3-2021.10/bin/../lib/gcc/arm-none-eabi/10.3.1/../../../../arm-none-eabi/lib/thumb/v7e-m+fp/hard/libc_nano.a(lib_a-fvwrite.o)
memset                                            /home/lubuntu/Documents/ARMToolchain/gcc-arm-none-eabi-10.3-2021.10/bin/../lib/gcc/arm-none-eabi/10.3.1/../../../../arm-none-eabi/lib/thumb/v7e-m+fp/hard/libc_nano.a(lib_a-memset.o)
                                                  /home/lubuntu/Documents/ARMToolchain/gcc-arm-none-eabi-10.3-2021.10/bin/../lib/gcc/arm-none-eabi/10.3.1/../../../../arm-none-eabi/lib/thumb/v7e-m+fp/hard/libc_nano.a(lib_a-findfp.o)
nmi_handler                                       /home/lubuntu/Documents/libOpenCM3/libopencm3/lib/libopencm3_stm32l4.a(vector.o)
null_handler                                      /home/lubuntu/Documents/libOpenCM3/libopencm3/lib/libopencm3_stm32l4.a(vector.o)
otg_fs_isr                                        /home/lubuntu/Documents/libOpenCM3/libopencm3/lib/libopencm3_stm32l4.a(vector.o)
pend_sv_handler                                   /home/lubuntu/Documents/libOpenCM3/libopencm3/lib/libopencm3_stm32l4.a(vector.o)
printf                                            /home/lubuntu/Documents/ARMToolchain/gcc-arm-none-eabi-10.3-2021.10/bin/../lib/gcc/arm-none-eabi/10.3.1/../../../../arm-none-eabi/lib/thumb/v7e-m+fp/hard/libc_nano.a(lib_a-printf.o)
                                                  Build/m2a.o
pvd_pvm_isr                                       /home/lubuntu/Documents/libOpenCM3/libopencm3/lib/libopencm3_stm32l4.a(vector.o)
quadspi_isr                                       /home/lubuntu/Documents/libOpenCM3/libopencm3/lib/libopencm3_stm32l4.a(vector.o)
raise                                             /home/lubuntu/Documents/ARMToolchain/gcc-arm-none-eabi-10.3-2021.10/bin/../lib/gcc/arm-none-eabi/10.3.1/../../../../arm-none-eabi/lib/thumb/v7e-m+fp/hard/libc_nano.a(lib_a-signal.o)
                                                  /home/lubuntu/Documents/ARMToolchain/gcc-arm-none-eabi-10.3-2021.10/bin/../lib/gcc/arm-none-eabi/10.3.1/../../../../arm-none-eabi/lib/thumb/v7e-m+fp/hard/libc_nano.a(lib_a-abort.o)
rcc_ahb_frequency                                 /home/lubuntu/Documents/libOpenCM3/libopencm3/lib/libopencm3_stm32l4.a(rcc.o)
rcc_apb1_frequency                                /home/lubuntu/Documents/libOpenCM3/libopencm3/lib/libopencm3_stm32l4.a(rcc.o)
                                                  /home/lubuntu/Documents/libOpenCM3/libopencm3/lib/libopencm3_stm32l4.a(usart_common_all.o)
rcc_apb2_frequency                                /home/lubuntu/Documents/libOpenCM3/libopencm3/lib/libopencm3_stm32l4.a(rcc.o)
                                                  /home/lubuntu/Documents/libOpenCM3/libopencm3/lib/libopencm3_stm32l4.a(usart_common_all.o)
rcc_css_disable                                   /home/lubuntu/Documents/libOpenCM3/libopencm3/lib/libopencm3_stm32l4.a(rcc.o)
rcc_css_enable                                    /home/lubuntu/Documents/libOpenCM3/libopencm3/lib/libopencm3_stm32l4.a(rcc.o)
rcc_css_int_clear                                 /home/lubuntu/Documents/libOpenCM3/libopencm3/lib/libopencm3_stm32l4.a(rcc.o)
rcc_css_int_flag                                  /home/lubuntu/Documents/libOpenCM3/libopencm3/lib/libopencm3_stm32l4.a(rcc.o)
rcc_disable_rtc_clock                             /home/lubuntu/Documents/libOpenCM3/libopencm3/lib/libopencm3_stm32l4.a(rcc.o)
rcc_enable_rtc_clock                              /home/lubuntu/Documents/libOpenCM3/libopencm3/lib/libopencm3_stm32l4.a(rcc.o)
rcc_get_div_from_hpre                             /home/lubuntu/Documents/libOpenCM3/libopencm3/lib/libopencm3_stm32l4.a(rcc_common_all.o)
                                                  /home/lubuntu/Documents/libOpenCM3/libopencm3/lib/libopencm3_stm32l4.a(rcc.o)
rcc_get_i2c_clk_freq                              /home/lubuntu/Documents/libOpenCM3/libopencm3/lib/libopencm3_stm32l4.a(rcc.o)
rcc_get_spi_clk_freq                              /home/lubuntu/Documents/libOpenCM3/libopencm3/lib/libopencm3_stm32l4.a(rcc.o)
rcc_get_timer_clk_freq                            /home/lubuntu/Documents/libOpenCM3/libopencm3/lib/libopencm3_stm32l4.a(rcc.o)
rcc_get_usart_clk_freq                            /home/lubuntu/Documents/libOpenCM3/libopencm3/lib/libopencm3_stm32l4.a(rcc.o)
rcc_is_osc_ready                                  /home/lubuntu/Documents/libOpenCM3/libopencm3/lib/libopencm3_stm32l4.a(rcc.o)
rcc_isr                                           /home/lubuntu/Documents/libOpenCM3/libopencm3/lib/libopencm3_stm32l4.a(vector.o)
rcc_osc_bypass_disable                            /home/lubuntu/Documents/libOpenCM3/libopencm3/lib/libopencm3_stm32l4.a(rcc_common_all.o)
rcc_osc_bypass_enable                             /home/lubuntu/Documents/libOpenCM3/libopencm3/lib/libopencm3_stm32l4.a(rcc_common_all.o)
rcc_osc_off                                       /home/lubuntu/Documents/libOpenCM3/libopencm3/lib/libopencm3_stm32l4.a(rcc.o)
rcc_osc_on                                        /home/lubuntu/Documents/libOpenCM3/libopencm3/lib/libopencm3_stm32l4.a(rcc.o)
                                                  Build/m2a.o
rcc_osc_ready_int_clear                           /home/lubuntu/Documents/libOpenCM3/libopencm3/lib/libopencm3_stm32l4.a(rcc.o)
rcc_osc_ready_int_disable                         /home/lubuntu/Documents/libOpenCM3/libopencm3/lib/libopencm3_stm32l4.a(rcc.o)
rcc_osc_ready_int_enable                          /home/lubuntu/Documents/libOpenCM3/libopencm3/lib/libopencm3_stm32l4.a(rcc.o)
rcc_osc_ready_int_flag                            /home/lubuntu/Documents/libOpenCM3/libopencm3/lib/libopencm3_stm32l4.a(rcc.o)
rcc_periph_clock_disable                          /home/lubuntu/Documents/libOpenCM3/libopencm3/lib/libopencm3_stm32l4.a(rcc_common_all.o)
rcc_periph_clock_enable                           /home/lubuntu/Documents/libOpenCM3/libopencm3/lib/libopencm3_stm32l4.a(rcc_common_all.o)
                                                  Build/m2a.o
rcc_periph_reset_hold                             /home/lubuntu/Documents/libOpenCM3/libopencm3/lib/libopencm3_stm32l4.a(rcc_common_all.o)
rcc_periph_reset_pulse                            /home/lubuntu/Documents/libOpenCM3/libopencm3/lib/libopencm3_stm32l4.a(rcc_common_all.o)
                                                  Build/m2a.o
rcc_periph_reset_release                          /home/lubuntu/Documents/libOpenCM3/libopencm3/lib/libopencm3_stm32l4.a(rcc_common_all.o)
rcc_peripheral_clear_reset                        /home/lubuntu/Documents/libOpenCM3/libopencm3/lib/libopencm3_stm32l4.a(rcc_common_all.o)
rcc_peripheral_disable_clock                      /home/lubuntu/Documents/libOpenCM3/libopencm3/lib/libopencm3_stm32l4.a(rcc_common_all.o)
rcc_peripheral_enable_clock                       /home/lubuntu/Documents/libOpenCM3/libopencm3/lib/libopencm3_stm32l4.a(rcc_common_all.o)
rcc_peripheral_reset                              /home/lubuntu/Documents/libOpenCM3/libopencm3/lib/libopencm3_stm32l4.a(rcc_common_all.o)
rcc_pll_output_enable                             /home/lubuntu/Documents/libOpenCM3/libopencm3/lib/libopencm3_stm32l4.a(rcc.o)
rcc_set_clock48_source                            /home/lubuntu/Documents/libOpenCM3/libopencm3/lib/libopencm3_stm32l4.a(rcc.o)
rcc_set_hpre                                      /home/lubuntu/Documents/libOpenCM3/libopencm3/lib/libopencm3_stm32l4.a(rcc.o)
rcc_set_main_pll                                  /home/lubuntu/Documents/libOpenCM3/libopencm3/lib/libopencm3_stm32l4.a(rcc.o)
                                                  Build/m2a.o
rcc_set_mco                                       /home/lubuntu/Documents/libOpenCM3/libopencm3/lib/libopencm3_stm32l4.a(rcc_common_all.o)
rcc_set_msi_range                                 /home/lubuntu/Documents/libOpenCM3/libopencm3/lib/libopencm3_stm32l4.a(rcc.o)
rcc_set_msi_range_standby                         /home/lubuntu/Documents/libOpenCM3/libopencm3/lib/libopencm3_stm32l4.a(rcc.o)
rcc_set_pll_source                                /home/lubuntu/Documents/libOpenCM3/libopencm3/lib/libopencm3_stm32l4.a(rcc.o)
rcc_set_ppre1                                     /home/lubuntu/Documents/libOpenCM3/libopencm3/lib/libopencm3_stm32l4.a(rcc.o)
rcc_set_ppre2                                     /home/lubuntu/Documents/libOpenCM3/libopencm3/lib/libopencm3_stm32l4.a(rcc.o)
rcc_set_rtc_clock_source                          /home/lubuntu/Documents/libOpenCM3/libopencm3/lib/libopencm3_stm32l4.a(rcc.o)
rcc_set_sysclk_source                             /home/lubuntu/Documents/libOpenCM3/libopencm3/lib/libopencm3_stm32l4.a(rcc.o)
rcc_system_clock_source                           /home/lubuntu/Documents/libOpenCM3/libopencm3/lib/libopencm3_stm32l4.a(rcc.o)
rcc_wait_for_osc_ready                            /home/lubuntu/Documents/libOpenCM3/libopencm3/lib/libopencm3_stm32l4.a(rcc.o)
rcc_wait_for_sysclk_status                        /home/lubuntu/Documents/libOpenCM3/libopencm3/lib/libopencm3_stm32l4.a(rcc.o)
reset_handler                                     /home/lubuntu/Documents/libOpenCM3/libopencm3/lib/libopencm3_stm32l4.a(vector.o)
rng_isr                                           /home/lubuntu/Documents/libOpenCM3/libopencm3/lib/libopencm3_stm32l4.a(vector.o)
rtc_alarm_isr                                     /home/lubuntu/Documents/libOpenCM3/libopencm3/lib/libopencm3_stm32l4.a(vector.o)
rtc_wkup_isr                                      /home/lubuntu/Documents/libOpenCM3/libopencm3/lib/libopencm3_stm32l4.a(vector.o)
sai1_isr                                          /home/lubuntu/Documents/libOpenCM3/libopencm3/lib/libopencm3_stm32l4.a(vector.o)
sai2_isr                                          /home/lubuntu/Documents/libOpenCM3/libopencm3/lib/libopencm3_stm32l4.a(vector.o)
sdmmc1_isr                                        /home/lubuntu/Documents/libOpenCM3/libopencm3/lib/libopencm3_stm32l4.a(vector.o)
setup_tim3                                        Build/m2a.o
signal                                            /home/lubuntu/Documents/ARMToolchain/gcc-arm-none-eabi-10.3-2021.10/bin/../lib/gcc/arm-none-eabi/10.3.1/../../../../arm-none-eabi/lib/thumb/v7e-m+fp/hard/libc_nano.a(lib_a-signal.o)
spi1_isr                                          /home/lubuntu/Documents/libOpenCM3/libopencm3/lib/libopencm3_stm32l4.a(vector.o)
spi2_isr                                          /home/lubuntu/Documents/libOpenCM3/libopencm3/lib/libopencm3_stm32l4.a(vector.o)
spi3_isr                                          /home/lubuntu/Documents/libOpenCM3/libopencm3/lib/libopencm3_stm32l4.a(vector.o)
sv_call_handler                                   /home/lubuntu/Documents/libOpenCM3/libopencm3/lib/libopencm3_stm32l4.a(vector.o)
swpmi1_isr                                        /home/lubuntu/Documents/libOpenCM3/libopencm3/lib/libopencm3_stm32l4.a(vector.o)
sys_tick_handler                                  /home/lubuntu/Documents/libOpenCM3/libopencm3/lib/libopencm3_stm32l4.a(vector.o)
tamp_stamp_isr                                    /home/lubuntu/Documents/libOpenCM3/libopencm3/lib/libopencm3_stm32l4.a(vector.o)
tim1_brk_tim15_isr                                /home/lubuntu/Documents/libOpenCM3/libopencm3/lib/libopencm3_stm32l4.a(vector.o)
tim1_cc_isr                                       /home/lubuntu/Documents/libOpenCM3/libopencm3/lib/libopencm3_stm32l4.a(vector.o)
tim1_trg_com_tim17_isr                            /home/lubuntu/Documents/libOpenCM3/libopencm3/lib/libopencm3_stm32l4.a(vector.o)
tim1_up_tim16_isr                                 /home/lubuntu/Documents/libOpenCM3/libopencm3/lib/libopencm3_stm32l4.a(vector.o)
tim2_isr                                          /home/lubuntu/Documents/libOpenCM3/libopencm3/lib/libopencm3_stm32l4.a(vector.o)
tim3_isr                                          /home/lubuntu/Documents/libOpenCM3/libopencm3/lib/libopencm3_stm32l4.a(vector.o)
tim4_isr                                          /home/lubuntu/Documents/libOpenCM3/libopencm3/lib/libopencm3_stm32l4.a(vector.o)
tim5_isr                                          /home/lubuntu/Documents/libOpenCM3/libopencm3/lib/libopencm3_stm32l4.a(vector.o)
tim6_dacunder_isr                                 /home/lubuntu/Documents/libOpenCM3/libopencm3/lib/libopencm3_stm32l4.a(vector.o)
tim7_isr                                          /home/lubuntu/Documents/libOpenCM3/libopencm3/lib/libopencm3_stm32l4.a(vector.o)
tim8_brk_isr                                      /home/lubuntu/Documents/libOpenCM3/libopencm3/lib/libopencm3_stm32l4.a(vector.o)
tim8_cc_isr                                       /home/lubuntu/Documents/libOpenCM3/libopencm3/lib/libopencm3_stm32l4.a(vector.o)
tim8_trg_com_isr                                  /home/lubuntu/Documents/libOpenCM3/libopencm3/lib/libopencm3_stm32l4.a(vector.o)
tim8_up_isr                                       /home/lubuntu/Documents/libOpenCM3/libopencm3/lib/libopencm3_stm32l4.a(vector.o)
timer_clear_flag                                  /home/lubuntu/Documents/libOpenCM3/libopencm3/lib/libopencm3_stm32l4.a(timer_common_all.o)
                                                  Build/m2a.o
timer_continuous_mode                             /home/lubuntu/Documents/libOpenCM3/libopencm3/lib/libopencm3_stm32l4.a(timer_common_all.o)
timer_direction_down                              /home/lubuntu/Documents/libOpenCM3/libopencm3/lib/libopencm3_stm32l4.a(timer_common_all.o)
timer_direction_up                                /home/lubuntu/Documents/libOpenCM3/libopencm3/lib/libopencm3_stm32l4.a(timer_common_all.o)
timer_disable_break                               /home/lubuntu/Documents/libOpenCM3/libopencm3/lib/libopencm3_stm32l4.a(timer_common_all.o)
timer_disable_break_automatic_output              /home/lubuntu/Documents/libOpenCM3/libopencm3/lib/libopencm3_stm32l4.a(timer_common_all.o)
timer_disable_break_main_output                   /home/lubuntu/Documents/libOpenCM3/libopencm3/lib/libopencm3_stm32l4.a(timer_common_all.o)
timer_disable_compare_control_update_on_trigger   /home/lubuntu/Documents/libOpenCM3/libopencm3/lib/libopencm3_stm32l4.a(timer_common_all.o)
timer_disable_counter                             /home/lubuntu/Documents/libOpenCM3/libopencm3/lib/libopencm3_stm32l4.a(timer_common_all.o)
timer_disable_irq                                 /home/lubuntu/Documents/libOpenCM3/libopencm3/lib/libopencm3_stm32l4.a(timer_common_all.o)
timer_disable_oc_clear                            /home/lubuntu/Documents/libOpenCM3/libopencm3/lib/libopencm3_stm32l4.a(timer_common_all.o)
timer_disable_oc_output                           /home/lubuntu/Documents/libOpenCM3/libopencm3/lib/libopencm3_stm32l4.a(timer_common_all.o)
timer_disable_oc_preload                          /home/lubuntu/Documents/libOpenCM3/libopencm3/lib/libopencm3_stm32l4.a(timer_common_all.o)
timer_disable_preload                             /home/lubuntu/Documents/libOpenCM3/libopencm3/lib/libopencm3_stm32l4.a(timer_common_all.o)
timer_disable_preload_complementry_enable_bits    /home/lubuntu/Documents/libOpenCM3/libopencm3/lib/libopencm3_stm32l4.a(timer_common_all.o)
timer_disable_update_event                        /home/lubuntu/Documents/libOpenCM3/libopencm3/lib/libopencm3_stm32l4.a(timer_common_all.o)
timer_enable_break                                /home/lubuntu/Documents/libOpenCM3/libopencm3/lib/libopencm3_stm32l4.a(timer_common_all.o)
timer_enable_break_automatic_output               /home/lubuntu/Documents/libOpenCM3/libopencm3/lib/libopencm3_stm32l4.a(timer_common_all.o)
timer_enable_break_main_output                    /home/lubuntu/Documents/libOpenCM3/libopencm3/lib/libopencm3_stm32l4.a(timer_common_all.o)
timer_enable_compare_control_update_on_trigger    /home/lubuntu/Documents/libOpenCM3/libopencm3/lib/libopencm3_stm32l4.a(timer_common_all.o)
timer_enable_counter                              /home/lubuntu/Documents/libOpenCM3/libopencm3/lib/libopencm3_stm32l4.a(timer_common_all.o)
                                                  Build/m2a.o
timer_enable_irq                                  /home/lubuntu/Documents/libOpenCM3/libopencm3/lib/libopencm3_stm32l4.a(timer_common_all.o)
                                                  Build/m2a.o
timer_enable_oc_clear                             /home/lubuntu/Documents/libOpenCM3/libopencm3/lib/libopencm3_stm32l4.a(timer_common_all.o)
timer_enable_oc_output                            /home/lubuntu/Documents/libOpenCM3/libopencm3/lib/libopencm3_stm32l4.a(timer_common_all.o)
timer_enable_oc_preload                           /home/lubuntu/Documents/libOpenCM3/libopencm3/lib/libopencm3_stm32l4.a(timer_common_all.o)
timer_enable_preload                              /home/lubuntu/Documents/libOpenCM3/libopencm3/lib/libopencm3_stm32l4.a(timer_common_all.o)
timer_enable_preload_complementry_enable_bits     /home/lubuntu/Documents/libOpenCM3/libopencm3/lib/libopencm3_stm32l4.a(timer_common_all.o)
timer_enable_update_event                         /home/lubuntu/Documents/libOpenCM3/libopencm3/lib/libopencm3_stm32l4.a(timer_common_all.o)
timer_generate_event                              /home/lubuntu/Documents/libOpenCM3/libopencm3/lib/libopencm3_stm32l4.a(timer_common_all.o)
timer_get_counter                                 /home/lubuntu/Documents/libOpenCM3/libopencm3/lib/libopencm3_stm32l4.a(timer_common_all.o)
timer_get_flag                                    /home/lubuntu/Documents/libOpenCM3/libopencm3/lib/libopencm3_stm32l4.a(timer_common_all.o)
                                                  Build/m2a.o
timer_ic_disable                                  /home/lubuntu/Documents/libOpenCM3/libopencm3/lib/libopencm3_stm32l4.a(timer_common_all.o)
timer_ic_enable                                   /home/lubuntu/Documents/libOpenCM3/libopencm3/lib/libopencm3_stm32l4.a(timer_common_all.o)
timer_ic_set_filter                               /home/lubuntu/Documents/libOpenCM3/libopencm3/lib/libopencm3_stm32l4.a(timer_common_all.o)
timer_ic_set_input                                /home/lubuntu/Documents/libOpenCM3/libopencm3/lib/libopencm3_stm32l4.a(timer_common_all.o)
timer_ic_set_prescaler                            /home/lubuntu/Documents/libOpenCM3/libopencm3/lib/libopencm3_stm32l4.a(timer_common_all.o)
timer_interrupt_source                            /home/lubuntu/Documents/libOpenCM3/libopencm3/lib/libopencm3_stm32l4.a(timer_common_all.o)
timer_one_shot_mode                               /home/lubuntu/Documents/libOpenCM3/libopencm3/lib/libopencm3_stm32l4.a(timer_common_all.o)
timer_reset_output_idle_state                     /home/lubuntu/Documents/libOpenCM3/libopencm3/lib/libopencm3_stm32l4.a(timer_common_all.o)
timer_set_alignment                               /home/lubuntu/Documents/libOpenCM3/libopencm3/lib/libopencm3_stm32l4.a(timer_common_all.o)
timer_set_break_lock                              /home/lubuntu/Documents/libOpenCM3/libopencm3/lib/libopencm3_stm32l4.a(timer_common_all.o)
timer_set_break_polarity_high                     /home/lubuntu/Documents/libOpenCM3/libopencm3/lib/libopencm3_stm32l4.a(timer_common_all.o)
timer_set_break_polarity_low                      /home/lubuntu/Documents/libOpenCM3/libopencm3/lib/libopencm3_stm32l4.a(timer_common_all.o)
timer_set_clock_division                          /home/lubuntu/Documents/libOpenCM3/libopencm3/lib/libopencm3_stm32l4.a(timer_common_all.o)
timer_set_counter                                 /home/lubuntu/Documents/libOpenCM3/libopencm3/lib/libopencm3_stm32l4.a(timer_common_all.o)
timer_set_deadtime                                /home/lubuntu/Documents/libOpenCM3/libopencm3/lib/libopencm3_stm32l4.a(timer_common_all.o)
timer_set_disabled_off_state_in_idle_mode         /home/lubuntu/Documents/libOpenCM3/libopencm3/lib/libopencm3_stm32l4.a(timer_common_all.o)
timer_set_disabled_off_state_in_run_mode          /home/lubuntu/Documents/libOpenCM3/libopencm3/lib/libopencm3_stm32l4.a(timer_common_all.o)
timer_set_dma_on_compare_event                    /home/lubuntu/Documents/libOpenCM3/libopencm3/lib/libopencm3_stm32l4.a(timer_common_all.o)
timer_set_dma_on_update_event                     /home/lubuntu/Documents/libOpenCM3/libopencm3/lib/libopencm3_stm32l4.a(timer_common_all.o)
timer_set_enabled_off_state_in_idle_mode          /home/lubuntu/Documents/libOpenCM3/libopencm3/lib/libopencm3_stm32l4.a(timer_common_all.o)
timer_set_enabled_off_state_in_run_mode           /home/lubuntu/Documents/libOpenCM3/libopencm3/lib/libopencm3_stm32l4.a(timer_common_all.o)
timer_set_master_mode                             /home/lubuntu/Documents/libOpenCM3/libopencm3/lib/libopencm3_stm32l4.a(timer_common_all.o)
timer_set_mode                                    /home/lubuntu/Documents/libOpenCM3/libopencm3/lib/libopencm3_stm32l4.a(timer_common_all.o)
timer_set_oc_fast_mode                            /home/lubuntu/Documents/libOpenCM3/libopencm3/lib/libopencm3_stm32l4.a(timer_common_all.o)
timer_set_oc_idle_state_set                       /home/lubuntu/Documents/libOpenCM3/libopencm3/lib/libopencm3_stm32l4.a(timer_common_all.o)
timer_set_oc_idle_state_unset                     /home/lubuntu/Documents/libOpenCM3/libopencm3/lib/libopencm3_stm32l4.a(timer_common_all.o)
timer_set_oc_mode                                 /home/lubuntu/Documents/libOpenCM3/libopencm3/lib/libopencm3_stm32l4.a(timer_common_all.o)
timer_set_oc_polarity_high                        /home/lubuntu/Documents/libOpenCM3/libopencm3/lib/libopencm3_stm32l4.a(timer_common_all.o)
timer_set_oc_polarity_low                         /home/lubuntu/Documents/libOpenCM3/libopencm3/lib/libopencm3_stm32l4.a(timer_common_all.o)
timer_set_oc_slow_mode                            /home/lubuntu/Documents/libOpenCM3/libopencm3/lib/libopencm3_stm32l4.a(timer_common_all.o)
timer_set_oc_value                                /home/lubuntu/Documents/libOpenCM3/libopencm3/lib/libopencm3_stm32l4.a(timer_common_all.o)
timer_set_output_idle_state                       /home/lubuntu/Documents/libOpenCM3/libopencm3/lib/libopencm3_stm32l4.a(timer_common_all.o)
timer_set_period                                  /home/lubuntu/Documents/libOpenCM3/libopencm3/lib/libopencm3_stm32l4.a(timer_common_all.o)
                                                  Build/m2a.o
timer_set_prescaler                               /home/lubuntu/Documents/libOpenCM3/libopencm3/lib/libopencm3_stm32l4.a(timer_common_all.o)
                                                  Build/m2a.o
timer_set_repetition_counter                      /home/lubuntu/Documents/libOpenCM3/libopencm3/lib/libopencm3_stm32l4.a(timer_common_all.o)
timer_set_ti1_ch1                                 /home/lubuntu/Documents/libOpenCM3/libopencm3/lib/libopencm3_stm32l4.a(timer_common_all.o)
timer_set_ti1_ch123_xor                           /home/lubuntu/Documents/libOpenCM3/libopencm3/lib/libopencm3_stm32l4.a(timer_common_all.o)
timer_slave_set_filter                            /home/lubuntu/Documents/libOpenCM3/libopencm3/lib/libopencm3_stm32l4.a(timer_common_all.o)
timer_slave_set_mode                              /home/lubuntu/Documents/libOpenCM3/libopencm3/lib/libopencm3_stm32l4.a(timer_common_all.o)
timer_slave_set_polarity                          /home/lubuntu/Documents/libOpenCM3/libopencm3/lib/libopencm3_stm32l4.a(timer_common_all.o)
timer_slave_set_prescaler                         /home/lubuntu/Documents/libOpenCM3/libopencm3/lib/libopencm3_stm32l4.a(timer_common_all.o)
timer_slave_set_trigger                           /home/lubuntu/Documents/libOpenCM3/libopencm3/lib/libopencm3_stm32l4.a(timer_common_all.o)
timer_update_on_any                               /home/lubuntu/Documents/libOpenCM3/libopencm3/lib/libopencm3_stm32l4.a(timer_common_all.o)
timer_update_on_overflow                          /home/lubuntu/Documents/libOpenCM3/libopencm3/lib/libopencm3_stm32l4.a(timer_common_all.o)
tsc_isr                                           /home/lubuntu/Documents/libOpenCM3/libopencm3/lib/libopencm3_stm32l4.a(vector.o)
uart4_isr                                         /home/lubuntu/Documents/libOpenCM3/libopencm3/lib/libopencm3_stm32l4.a(vector.o)
uart5_isr                                         /home/lubuntu/Documents/libOpenCM3/libopencm3/lib/libopencm3_stm32l4.a(vector.o)
usage_fault_handler                               /home/lubuntu/Documents/libOpenCM3/libopencm3/lib/libopencm3_stm32l4.a(vector.o)
usart1_isr                                        /home/lubuntu/Documents/libOpenCM3/libopencm3/lib/libopencm3_stm32l4.a(vector.o)
usart2_isr                                        /home/lubuntu/Documents/libOpenCM3/libopencm3/lib/libopencm3_stm32l4.a(vector.o)
usart3_isr                                        /home/lubuntu/Documents/libOpenCM3/libopencm3/lib/libopencm3_stm32l4.a(vector.o)
usart_disable                                     /home/lubuntu/Documents/libOpenCM3/libopencm3/lib/libopencm3_stm32l4.a(usart_common_all.o)
usart_disable_data_inversion                      /home/lubuntu/Documents/libOpenCM3/libopencm3/lib/libopencm3_stm32l4.a(usart_common_v2.o)
usart_disable_error_interrupt                     /home/lubuntu/Documents/libOpenCM3/libopencm3/lib/libopencm3_stm32l4.a(usart_common_all.o)
usart_disable_halfduplex                          /home/lubuntu/Documents/libOpenCM3/libopencm3/lib/libopencm3_stm32l4.a(usart_common_v2.o)
usart_disable_idle_interrupt                      /home/lubuntu/Documents/libOpenCM3/libopencm3/lib/libopencm3_stm32l4.a(usart_common_all.o)
usart_disable_rx_dma                              /home/lubuntu/Documents/libOpenCM3/libopencm3/lib/libopencm3_stm32l4.a(usart_common_all.o)
usart_disable_rx_interrupt                        /home/lubuntu/Documents/libOpenCM3/libopencm3/lib/libopencm3_stm32l4.a(usart_common_all.o)
usart_disable_rx_inversion                        /home/lubuntu/Documents/libOpenCM3/libopencm3/lib/libopencm3_stm32l4.a(usart_common_v2.o)
usart_disable_rx_timeout                          /home/lubuntu/Documents/libOpenCM3/libopencm3/lib/libopencm3_stm32l4.a(usart_common_v2.o)
usart_disable_rx_timeout_interrupt                /home/lubuntu/Documents/libOpenCM3/libopencm3/lib/libopencm3_stm32l4.a(usart_common_v2.o)
usart_disable_tx_complete_interrupt               /home/lubuntu/Documents/libOpenCM3/libopencm3/lib/libopencm3_stm32l4.a(usart_common_all.o)
usart_disable_tx_dma                              /home/lubuntu/Documents/libOpenCM3/libopencm3/lib/libopencm3_stm32l4.a(usart_common_all.o)
usart_disable_tx_interrupt                        /home/lubuntu/Documents/libOpenCM3/libopencm3/lib/libopencm3_stm32l4.a(usart_common_all.o)
usart_disable_tx_inversion                        /home/lubuntu/Documents/libOpenCM3/libopencm3/lib/libopencm3_stm32l4.a(usart_common_v2.o)
usart_enable                                      /home/lubuntu/Documents/libOpenCM3/libopencm3/lib/libopencm3_stm32l4.a(usart_common_all.o)
                                                  Build/m2a.o
usart_enable_data_inversion                       /home/lubuntu/Documents/libOpenCM3/libopencm3/lib/libopencm3_stm32l4.a(usart_common_v2.o)
usart_enable_error_interrupt                      /home/lubuntu/Documents/libOpenCM3/libopencm3/lib/libopencm3_stm32l4.a(usart_common_all.o)
usart_enable_halfduplex                           /home/lubuntu/Documents/libOpenCM3/libopencm3/lib/libopencm3_stm32l4.a(usart_common_v2.o)
usart_enable_idle_interrupt                       /home/lubuntu/Documents/libOpenCM3/libopencm3/lib/libopencm3_stm32l4.a(usart_common_all.o)
usart_enable_rx_dma                               /home/lubuntu/Documents/libOpenCM3/libopencm3/lib/libopencm3_stm32l4.a(usart_common_all.o)
usart_enable_rx_interrupt                         /home/lubuntu/Documents/libOpenCM3/libopencm3/lib/libopencm3_stm32l4.a(usart_common_all.o)
usart_enable_rx_inversion                         /home/lubuntu/Documents/libOpenCM3/libopencm3/lib/libopencm3_stm32l4.a(usart_common_v2.o)
usart_enable_rx_timeout                           /home/lubuntu/Documents/libOpenCM3/libopencm3/lib/libopencm3_stm32l4.a(usart_common_v2.o)
usart_enable_rx_timeout_interrupt                 /home/lubuntu/Documents/libOpenCM3/libopencm3/lib/libopencm3_stm32l4.a(usart_common_v2.o)
usart_enable_tx_complete_interrupt                /home/lubuntu/Documents/libOpenCM3/libopencm3/lib/libopencm3_stm32l4.a(usart_common_all.o)
usart_enable_tx_dma                               /home/lubuntu/Documents/libOpenCM3/libopencm3/lib/libopencm3_stm32l4.a(usart_common_all.o)
usart_enable_tx_interrupt                         /home/lubuntu/Documents/libOpenCM3/libopencm3/lib/libopencm3_stm32l4.a(usart_common_all.o)
usart_enable_tx_inversion                         /home/lubuntu/Documents/libOpenCM3/libopencm3/lib/libopencm3_stm32l4.a(usart_common_v2.o)
usart_get_flag                                    /home/lubuntu/Documents/libOpenCM3/libopencm3/lib/libopencm3_stm32l4.a(usart_common_v2.o)
                                                  Build/m2a.o
usart_recv                                        /home/lubuntu/Documents/libOpenCM3/libopencm3/lib/libopencm3_stm32l4.a(usart_common_v2.o)
                                                  /home/lubuntu/Documents/libOpenCM3/libopencm3/lib/libopencm3_stm32l4.a(usart_common_all.o)
usart_recv_blocking                               /home/lubuntu/Documents/libOpenCM3/libopencm3/lib/libopencm3_stm32l4.a(usart_common_all.o)
                                                  Build/m2a.o
usart_send                                        /home/lubuntu/Documents/libOpenCM3/libopencm3/lib/libopencm3_stm32l4.a(usart_common_v2.o)
                                                  /home/lubuntu/Documents/libOpenCM3/libopencm3/lib/libopencm3_stm32l4.a(usart_common_all.o)
usart_send_blocking                               /home/lubuntu/Documents/libOpenCM3/libopencm3/lib/libopencm3_stm32l4.a(usart_common_all.o)
                                                  Build/m2a.o
usart_set_baudrate                                /home/lubuntu/Documents/libOpenCM3/libopencm3/lib/libopencm3_stm32l4.a(usart_common_all.o)
                                                  Build/m2a.o
usart_set_databits                                /home/lubuntu/Documents/libOpenCM3/libopencm3/lib/libopencm3_stm32l4.a(usart_common_all.o)
                                                  Build/m2a.o
usart_set_flow_control                            /home/lubuntu/Documents/libOpenCM3/libopencm3/lib/libopencm3_stm32l4.a(usart_common_all.o)
                                                  Build/m2a.o
usart_set_mode                                    /home/lubuntu/Documents/libOpenCM3/libopencm3/lib/libopencm3_stm32l4.a(usart_common_all.o)
                                                  Build/m2a.o
usart_set_parity                                  /home/lubuntu/Documents/libOpenCM3/libopencm3/lib/libopencm3_stm32l4.a(usart_common_all.o)
                                                  Build/m2a.o
usart_set_rx_timeout_value                        /home/lubuntu/Documents/libOpenCM3/libopencm3/lib/libopencm3_stm32l4.a(usart_common_v2.o)
usart_set_stopbits                                /home/lubuntu/Documents/libOpenCM3/libopencm3/lib/libopencm3_stm32l4.a(usart_common_all.o)
                                                  Build/m2a.o
usart_setup                                       Build/m2a.o
usart_wait_recv_ready                             /home/lubuntu/Documents/libOpenCM3/libopencm3/lib/libopencm3_stm32l4.a(usart_common_v2.o)
                                                  /home/lubuntu/Documents/libOpenCM3/libopencm3/lib/libopencm3_stm32l4.a(usart_common_all.o)
usart_wait_send_ready                             /home/lubuntu/Documents/libOpenCM3/libopencm3/lib/libopencm3_stm32l4.a(usart_common_v2.o)
                                                  /home/lubuntu/Documents/libOpenCM3/libopencm3/lib/libopencm3_stm32l4.a(usart_common_all.o)
vector_table                                      /home/lubuntu/Documents/libOpenCM3/libopencm3/lib/libopencm3_stm32l4.a(vector.o)
vfiprintf                                         /home/lubuntu/Documents/ARMToolchain/gcc-arm-none-eabi-10.3-2021.10/bin/../lib/gcc/arm-none-eabi/10.3.1/../../../../arm-none-eabi/lib/thumb/v7e-m+fp/hard/libc_nano.a(lib_a-nano-vfprintf.o)
vfprintf                                          /home/lubuntu/Documents/ARMToolchain/gcc-arm-none-eabi-10.3-2021.10/bin/../lib/gcc/arm-none-eabi/10.3.1/../../../../arm-none-eabi/lib/thumb/v7e-m+fp/hard/libc_nano.a(lib_a-nano-vfprintf.o)
wwdg_isr                                          /home/lubuntu/Documents/libOpenCM3/libopencm3/lib/libopencm3_stm32l4.a(vector.o)
