	.cpu cortex-m4
	.arch armv7e-m
	.fpu fpv4-sp-d16
	.eabi_attribute 27, 1
	.eabi_attribute 28, 1
	.eabi_attribute 20, 1
	.eabi_attribute 21, 1
	.eabi_attribute 23, 3
	.eabi_attribute 24, 1
	.eabi_attribute 25, 1
	.eabi_attribute 26, 1
	.eabi_attribute 30, 1
	.eabi_attribute 34, 1
	.eabi_attribute 18, 4
	.file	"Racolon42_c.c"
	.text
.Ltext0:
	.cfi_sections	.debug_frame
	.section	.text.ttu_set_main_pll,"ax",%progbits
	.align	1
	.global	ttu_set_main_pll
	.syntax unified
	.thumb
	.thumb_func
	.type	ttu_set_main_pll, %function
ttu_set_main_pll:
.LVL0:
.LFB0:
	.file 1 "Source/Racolon42_c.c"
	.loc 1 20 45 view -0
	.cfi_startproc
	@ args = 0, pretend = 0, frame = 0
	@ frame_needed = 0, uses_anonymous_args = 0
	.loc 1 20 45 is_stmt 0 view .LVU1
	push	{r4, lr}
.LCFI0:
	.cfi_def_cfa_offset 8
	.cfi_offset 4, -8
	.cfi_offset 14, -4
	sub	sp, sp, #8
.LCFI1:
	.cfi_def_cfa_offset 16
	.loc 1 32 5 is_stmt 1 view .LVU2
.LVL1:
	.loc 1 33 5 view .LVU3
	.loc 1 34 5 view .LVU4
	.loc 1 36 5 view .LVU5
	.loc 1 36 27 is_stmt 0 view .LVU6
	sub	r1, r0, #8000
	.loc 1 36 7 view .LVU7
	ldr	r3, .L13
	cmp	r1, r3
	bls	.L2
	.loc 1 37 7 is_stmt 1 view .LVU8
	.syntax unified
@ 37 "Source/Racolon42_c.c" 1
	nop
@ 0 "" 2
	.loc 1 34 14 is_stmt 0 view .LVU9
	.thumb
	.syntax unified
	movs	r2, #16
	.loc 1 33 14 view .LVU10
	movs	r1, #4
	.loc 1 32 14 view .LVU11
	mov	r0, r1
.LVL2:
.L3:
	.loc 1 66 5 is_stmt 1 view .LVU12
	str	r0, [sp, #4]
	movs	r0, #2
.LVL3:
	.loc 1 66 5 is_stmt 0 view .LVU13
	str	r0, [sp]
	movs	r3, #7
	bl	rcc_set_main_pll
.LVL4:
	.loc 1 67 5 is_stmt 1 view .LVU14
	.loc 1 68 1 is_stmt 0 view .LVU15
	add	sp, sp, #8
.LCFI2:
	.cfi_remember_state
	.cfi_def_cfa_offset 8
	@ sp needed
	pop	{r4, pc}
.LVL5:
.L2:
.LCFI3:
	.cfi_restore_state
	.loc 1 68 1 view .LVU16
	mov	r2, r0
.LBB2:
	.loc 1 40 7 is_stmt 1 view .LVU17
.LVL6:
	.loc 1 41 7 view .LVU18
	.loc 1 44 7 view .LVU19
	.loc 1 44 16 is_stmt 0 view .LVU20
	lsl	ip, r0, #3
.LVL7:
	.loc 1 45 7 is_stmt 1 view .LVU21
	.loc 1 40 13 is_stmt 0 view .LVU22
	movs	r0, #8
.LVL8:
	.loc 1 45 12 view .LVU23
	b	.L4
.LVL9:
.L5:
	.loc 1 46 9 is_stmt 1 view .LVU24
	.loc 1 46 22 is_stmt 0 view .LVU25
	subs	r0, r0, #1
.LVL10:
	.loc 1 46 22 view .LVU26
	mul	ip, r0, r2
.LVL11:
.L4:
	.loc 1 45 12 is_stmt 1 view .LVU27
	ldr	r3, .L13+4
	cmp	ip, r3
	bhi	.L5
	.loc 1 49 11 is_stmt 0 view .LVU28
	movs	r4, #1
.LBE2:
	.loc 1 34 14 view .LVU29
	movs	r2, #16
.LVL12:
.LBB3:
	.loc 1 41 13 view .LVU30
	movs	r1, #8
.LVL13:
	.loc 1 41 13 view .LVU31
	b	.L6
.LVL14:
.L7:
	.loc 1 54 11 is_stmt 1 view .LVU32
	adds	r2, r2, #1
.LVL15:
.L9:
	.loc 1 53 14 view .LVU33
	.loc 1 53 30 is_stmt 0 view .LVU34
	mov	r3, #16000
	udiv	r3, r3, r1
	.loc 1 53 22 view .LVU35
	mul	r3, r2, r3
	.loc 1 53 14 view .LVU36
	cmp	r3, ip
	bcc	.L7
	.loc 1 56 9 is_stmt 1 view .LVU37
	.loc 1 56 11 is_stmt 0 view .LVU38
	cmp	r2, #86
	bls	.L10
	.loc 1 57 11 is_stmt 1 view .LVU39
.LVL16:
	.loc 1 58 11 view .LVU40
	subs	r1, r1, #1
.LVL17:
.L6:
	.loc 1 50 12 view .LVU41
	cmp	r4, #0
	beq	.L3
	.loc 1 51 15 is_stmt 0 view .LVU42
	movs	r2, #8
.LVL18:
	.loc 1 51 15 view .LVU43
	b	.L9
.LVL19:
.L10:
	.loc 1 61 23 view .LVU44
	movs	r4, #0
.LVL20:
	.loc 1 61 23 view .LVU45
	b	.L6
.L14:
	.align	2
.L13:
	.word	72000
	.word	344000
.LBE3:
	.cfi_endproc
.LFE0:
	.size	ttu_set_main_pll, .-ttu_set_main_pll
	.section	.text.main,"ax",%progbits
	.align	1
	.global	main
	.syntax unified
	.thumb
	.thumb_func
	.type	main, %function
main:
.LFB1:
	.loc 1 71 16 is_stmt 1 view -0
	.cfi_startproc
	@ args = 0, pretend = 0, frame = 0
	@ frame_needed = 0, uses_anonymous_args = 0
	push	{r3, lr}
.LCFI4:
	.cfi_def_cfa_offset 8
	.cfi_offset 3, -8
	.cfi_offset 14, -4
	.loc 1 72 3 view .LVU47
	movw	r0, #10000
	bl	ttu_set_main_pll
.LVL21:
	.loc 1 74 3 view .LVU48
	mov	r0, #2432
	bl	rcc_periph_clock_enable
.LVL22:
	.loc 1 76 3 view .LVU49
	movs	r3, #32
	movs	r2, #1
	mov	r1, r2
	mov	r0, #1207959552
	bl	gpio_mode_setup
.LVL23:
	b	.L18
.LVL24:
.L17:
.LBB4:
	.loc 1 80 7 discriminator 3 view .LVU50
	.syntax unified
@ 80 "Source/Racolon42_c.c" 1
	nop
@ 0 "" 2
	.loc 1 79 45 discriminator 3 view .LVU51
	.loc 1 79 50 is_stmt 0 discriminator 3 view .LVU52
	.thumb
	.syntax unified
	adds	r3, r3, #1
.LVL25:
.L16:
	.loc 1 79 29 is_stmt 1 discriminator 1 view .LVU53
	.loc 1 79 5 is_stmt 0 discriminator 1 view .LVU54
	ldr	r2, .L20
	cmp	r3, r2
	bls	.L17
.LBE4:
	.loc 1 82 5 is_stmt 1 view .LVU55
	movs	r1, #32
	mov	r0, #1207959552
	bl	gpio_toggle
.LVL26:
	.loc 1 78 8 view .LVU56
.L18:
	.loc 1 78 3 view .LVU57
	.loc 1 79 5 view .LVU58
.LBB5:
	.loc 1 79 9 view .LVU59
	.loc 1 79 18 is_stmt 0 view .LVU60
	movs	r3, #0
	.loc 1 79 5 view .LVU61
	b	.L16
.L21:
	.align	2
.L20:
	.word	499999
.LBE5:
	.cfi_endproc
.LFE1:
	.size	main, .-main
	.text
.Letext0:
	.file 2 "/home/ryan/Documents/Gitlab/embedded-systems-development-milestones/ARM/gcc-arm-none-eabi-10.3-2021.10/arm-none-eabi/include/machine/_default_types.h"
	.file 3 "/home/ryan/Documents/Gitlab/embedded-systems-development-milestones/ARM/gcc-arm-none-eabi-10.3-2021.10/arm-none-eabi/include/sys/_stdint.h"
	.file 4 "/home/ryan/Documents/Gitlab/embedded-systems-development-milestones/libopencm3/include/libopencm3/stm32/common/rcc_common_all.h"
	.file 5 "/home/ryan/Documents/Gitlab/embedded-systems-development-milestones/libopencm3/include/libopencm3/stm32/common/gpio_common_f234.h"
	.file 6 "/home/ryan/Documents/Gitlab/embedded-systems-development-milestones/libopencm3/include/libopencm3/stm32/common/gpio_common_all.h"
	.file 7 "/home/ryan/Documents/Gitlab/embedded-systems-development-milestones/libopencm3/include/libopencm3/stm32/l4/rcc.h"